Archive member included because of file (symbol)

/opt/microchip/xc32/v1.22/bin/../lib/gcc/pic32mx/4.5.2/../../../../pic32mx/lib/libmchp_peripheral.a(read_core_timer_lib.o)
                              build/default/debug/contrib/ports/microchip/netif/ETHPIC32ExtPhy.o (ReadCoreTimer)
/opt/microchip/xc32/v1.22/bin/../lib/gcc/pic32mx/4.5.2/../../../../pic32mx/lib/libmchp_peripheral_32MX795F512L.a(eth_ack_packet_lib.o)
                              build/default/debug/contrib/ports/microchip/ethernetif.o (EthRxAcknowledgeBuffer)
/opt/microchip/xc32/v1.22/bin/../lib/gcc/pic32mx/4.5.2/../../../../pic32mx/lib/libmchp_peripheral_32MX795F512L.a(eth_descriptors_add_lib.o)
                              build/default/debug/contrib/ports/microchip/netif/Microchip_eth.o (EthDescriptorsPoolAdd)
/opt/microchip/xc32/v1.22/bin/../lib/gcc/pic32mx/4.5.2/../../../../pic32mx/lib/libmchp_peripheral_32MX795F512L.a(eth_init_lib.o)
                              build/default/debug/contrib/ports/microchip/netif/Microchip_eth.o (EthInit)
/opt/microchip/xc32/v1.22/bin/../lib/gcc/pic32mx/4.5.2/../../../../pic32mx/lib/libmchp_peripheral_32MX795F512L.a(eth_mac_open_lib.o)
                              build/default/debug/contrib/ports/microchip/netif/Microchip_eth.o (EthMACOpen)
/opt/microchip/xc32/v1.22/bin/../lib/gcc/pic32mx/4.5.2/../../../../pic32mx/lib/libmchp_peripheral_32MX795F512L.a(eth_mac_set_address_max_lib.o)
                              build/default/debug/contrib/ports/microchip/netif/Microchip_eth.o (EthMACSetAddress)
/opt/microchip/xc32/v1.22/bin/../lib/gcc/pic32mx/4.5.2/../../../../pic32mx/lib/libmchp_peripheral_32MX795F512L.a(eth_rx_buffers_append_lib.o)
                              build/default/debug/contrib/ports/microchip/netif/Microchip_eth.o (EthRxBuffersAppend)
/opt/microchip/xc32/v1.22/bin/../lib/gcc/pic32mx/4.5.2/../../../../pic32mx/lib/libmchp_peripheral_32MX795F512L.a(eth_rx_filters_lib.o)
                              build/default/debug/contrib/ports/microchip/netif/Microchip_eth.o (EthRxFiltersSet)
/opt/microchip/xc32/v1.22/bin/../lib/gcc/pic32mx/4.5.2/../../../../pic32mx/lib/libmchp_peripheral_32MX795F512L.a(eth_rx_get_packet_lib.o)
                              build/default/debug/contrib/ports/microchip/ethernetif.o (EthRxGetBuffer)
/opt/microchip/xc32/v1.22/bin/../lib/gcc/pic32mx/4.5.2/../../../../pic32mx/lib/libmchp_peripheral_32MX795F512L.a(eth_rx_set_buffer_size_lib.o)
                              build/default/debug/contrib/ports/microchip/netif/Microchip_eth.o (EthRxSetBufferSize)
/opt/microchip/xc32/v1.22/bin/../lib/gcc/pic32mx/4.5.2/../../../../pic32mx/lib/libmchp_peripheral_32MX795F512L.a(eth_tx_packet_lib.o)
                              build/default/debug/contrib/ports/microchip/netif/Microchip_eth.o (EthTxSendBuffer)
/opt/microchip/xc32/v1.22/bin/../lib/gcc/pic32mx/4.5.2/../../../../pic32mx/lib/libmchp_peripheral_32MX795F512L.a(_eth_append_busy_list_lib.o)
                              /opt/microchip/xc32/v1.22/bin/../lib/gcc/pic32mx/4.5.2/../../../../pic32mx/lib/libmchp_peripheral_32MX795F512L.a(eth_ack_packet_lib.o) (_EthAppendBusyList)
/opt/microchip/xc32/v1.22/bin/../lib/gcc/pic32mx/4.5.2/../../../../pic32mx/lib/libmchp_peripheral_32MX795F512L.a(eth_miim_access.o)
                              build/default/debug/contrib/ports/microchip/netif/ETHPIC32ExtPhyDP83848.o (EthMIIMReadStart)
/opt/microchip/xc32/v1.22/bin/../lib/gcc/pic32mx/4.5.2/../../../../pic32mx/lib/libmchp_peripheral_32MX795F512L.a(int_tbl_lib.o)
                              /opt/microchip/xc32/v1.22/bin/../lib/gcc/pic32mx/4.5.2/../../../../pic32mx/lib/libmchp_peripheral_32MX795F512L.a(eth_init_lib.o) (INTClearFlag)
/opt/microchip/xc32/v1.22/bin/../lib/gcc/pic32mx/4.5.2/../../../../pic32mx/lib/libmchp_peripheral_32MX795F512L.a(port_set_pins_digital_in_lib.o)
                              build/default/debug/contrib/ports/microchip/netif/ETHPIC32ExtPhy.o (PORTSetPinsDigitalIn)
/opt/microchip/xc32/v1.22/bin/../lib/gcc/pic32mx/4.5.2/../../../../pic32mx/lib/libmchp_peripheral_32MX795F512L.a(port_set_pins_digital_out_lib.o)
                              build/default/debug/contrib/ports/microchip/netif/ETHPIC32ExtPhy.o (PORTSetPinsDigitalOut)
/opt/microchip/xc32/v1.22/bin/../lib/gcc/pic32mx/4.5.2/../../../../pic32mx/lib/libmchp_peripheral_32MX795F512L.a(_ports_tbl_libp.o)
                              /opt/microchip/xc32/v1.22/bin/../lib/gcc/pic32mx/4.5.2/../../../../pic32mx/lib/libmchp_peripheral_32MX795F512L.a(port_set_pins_digital_in_lib.o) (PortRegTbl)
/opt/microchip/xc32/v1.22/bin/../lib/gcc/pic32mx/4.5.2/../../../../pic32mx/lib/libpic32.a(memcmp.o)
                              build/default/debug/contrib/ports/microchip/netif/Microchip_eth.o (memcmp)
/opt/microchip/xc32/v1.22/bin/../lib/gcc/pic32mx/4.5.2/../../../../pic32mx/lib/libpic32.a(memcpy.o)
                              build/default/debug/contrib/ports/microchip/netif/Microchip_eth.o (memcpy)
/opt/microchip/xc32/v1.22/bin/../lib/gcc/pic32mx/4.5.2/../../../../pic32mx/lib/libpic32.a(memset.o)
                              build/default/debug/lwip-1.4.1/src/api/sockets.o (memset)
/opt/microchip/xc32/v1.22/bin/../lib/gcc/pic32mx/4.5.2/../../../../pic32mx/lib/libpic32.a(strlen.o)
                              build/default/debug/lwip-1.4.1/src/core/pbuf.o (strlen)
/opt/microchip/xc32/v1.22/bin/../lib/gcc/pic32mx/4.5.2/../../../../pic32mx/lib/libpic32.a(default-bootstrap-exception-handler.o)
                              /opt/microchip/xc32/v1.22/bin/../lib/gcc/pic32mx/4.5.2/../../../../pic32mx/lib/crt0.o (_bootstrap_exception_handler)
/opt/microchip/xc32/v1.22/bin/../lib/gcc/pic32mx/4.5.2/../../../../pic32mx/lib/libpic32.a(default-on-reset.o)
                              /opt/microchip/xc32/v1.22/bin/../lib/gcc/pic32mx/4.5.2/../../../../pic32mx/lib/crt0.o (_on_reset)
/opt/microchip/xc32/v1.22/bin/../lib/gcc/pic32mx/4.5.2/../../../../pic32mx/lib/libpic32.a(default-on-bootstrap.o)
                              /opt/microchip/xc32/v1.22/bin/../lib/gcc/pic32mx/4.5.2/../../../../pic32mx/lib/crt0.o (_on_bootstrap)
/opt/microchip/xc32/v1.22/bin/../lib/gcc/pic32mx/4.5.2/../../../../pic32mx/lib/libpic32.a(default-nmi-handler.o)
                              /opt/microchip/xc32/v1.22/bin/../lib/gcc/pic32mx/4.5.2/../../../../pic32mx/lib/crt0.o (_nmi_handler)
/opt/microchip/xc32/v1.22/bin/../lib/gcc/pic32mx/4.5.2/../../../../pic32mx/lib/libpic32.a(general-exception.o)
                              /opt/microchip/xc32/v1.22/bin/../lib/gcc/pic32mx/4.5.2/../../../../pic32mx/lib/crt0.o (_general_exception_context)
/opt/microchip/xc32/v1.22/bin/../lib/gcc/pic32mx/4.5.2/../../../../pic32mx/lib/libpic32.a(vector0.o)
                              /opt/microchip/xc32/v1.22/bin/../lib/gcc/pic32mx/4.5.2/../../../../pic32mx/lib/./proc/32MX795F512L/default_isr_vectors.o (__vector_dispatch_0)
/opt/microchip/xc32/v1.22/bin/../lib/gcc/pic32mx/4.5.2/../../../../pic32mx/lib/libpic32.a(vector2.o)
                              /opt/microchip/xc32/v1.22/bin/../lib/gcc/pic32mx/4.5.2/../../../../pic32mx/lib/./proc/32MX795F512L/default_isr_vectors.o (__vector_dispatch_2)
/opt/microchip/xc32/v1.22/bin/../lib/gcc/pic32mx/4.5.2/../../../../pic32mx/lib/libpic32.a(vector3.o)
                              /opt/microchip/xc32/v1.22/bin/../lib/gcc/pic32mx/4.5.2/../../../../pic32mx/lib/./proc/32MX795F512L/default_isr_vectors.o (__vector_dispatch_3)
/opt/microchip/xc32/v1.22/bin/../lib/gcc/pic32mx/4.5.2/../../../../pic32mx/lib/libpic32.a(vector5.o)
                              /opt/microchip/xc32/v1.22/bin/../lib/gcc/pic32mx/4.5.2/../../../../pic32mx/lib/./proc/32MX795F512L/default_isr_vectors.o (__vector_dispatch_5)
/opt/microchip/xc32/v1.22/bin/../lib/gcc/pic32mx/4.5.2/../../../../pic32mx/lib/libpic32.a(vector6.o)
                              /opt/microchip/xc32/v1.22/bin/../lib/gcc/pic32mx/4.5.2/../../../../pic32mx/lib/./proc/32MX795F512L/default_isr_vectors.o (__vector_dispatch_6)
/opt/microchip/xc32/v1.22/bin/../lib/gcc/pic32mx/4.5.2/../../../../pic32mx/lib/libpic32.a(vector7.o)
                              /opt/microchip/xc32/v1.22/bin/../lib/gcc/pic32mx/4.5.2/../../../../pic32mx/lib/./proc/32MX795F512L/default_isr_vectors.o (__vector_dispatch_7)
/opt/microchip/xc32/v1.22/bin/../lib/gcc/pic32mx/4.5.2/../../../../pic32mx/lib/libpic32.a(vector8.o)
                              /opt/microchip/xc32/v1.22/bin/../lib/gcc/pic32mx/4.5.2/../../../../pic32mx/lib/./proc/32MX795F512L/default_isr_vectors.o (__vector_dispatch_8)
/opt/microchip/xc32/v1.22/bin/../lib/gcc/pic32mx/4.5.2/../../../../pic32mx/lib/libpic32.a(vector9.o)
                              /opt/microchip/xc32/v1.22/bin/../lib/gcc/pic32mx/4.5.2/../../../../pic32mx/lib/./proc/32MX795F512L/default_isr_vectors.o (__vector_dispatch_9)
/opt/microchip/xc32/v1.22/bin/../lib/gcc/pic32mx/4.5.2/../../../../pic32mx/lib/libpic32.a(vector10.o)
                              /opt/microchip/xc32/v1.22/bin/../lib/gcc/pic32mx/4.5.2/../../../../pic32mx/lib/./proc/32MX795F512L/default_isr_vectors.o (__vector_dispatch_10)
/opt/microchip/xc32/v1.22/bin/../lib/gcc/pic32mx/4.5.2/../../../../pic32mx/lib/libpic32.a(vector11.o)
                              /opt/microchip/xc32/v1.22/bin/../lib/gcc/pic32mx/4.5.2/../../../../pic32mx/lib/./proc/32MX795F512L/default_isr_vectors.o (__vector_dispatch_11)
/opt/microchip/xc32/v1.22/bin/../lib/gcc/pic32mx/4.5.2/../../../../pic32mx/lib/libpic32.a(vector12.o)
                              /opt/microchip/xc32/v1.22/bin/../lib/gcc/pic32mx/4.5.2/../../../../pic32mx/lib/./proc/32MX795F512L/default_isr_vectors.o (__vector_dispatch_12)
/opt/microchip/xc32/v1.22/bin/../lib/gcc/pic32mx/4.5.2/../../../../pic32mx/lib/libpic32.a(vector13.o)
                              /opt/microchip/xc32/v1.22/bin/../lib/gcc/pic32mx/4.5.2/../../../../pic32mx/lib/./proc/32MX795F512L/default_isr_vectors.o (__vector_dispatch_13)
/opt/microchip/xc32/v1.22/bin/../lib/gcc/pic32mx/4.5.2/../../../../pic32mx/lib/libpic32.a(vector14.o)
                              /opt/microchip/xc32/v1.22/bin/../lib/gcc/pic32mx/4.5.2/../../../../pic32mx/lib/./proc/32MX795F512L/default_isr_vectors.o (__vector_dispatch_14)
/opt/microchip/xc32/v1.22/bin/../lib/gcc/pic32mx/4.5.2/../../../../pic32mx/lib/libpic32.a(vector16.o)
                              /opt/microchip/xc32/v1.22/bin/../lib/gcc/pic32mx/4.5.2/../../../../pic32mx/lib/./proc/32MX795F512L/default_isr_vectors.o (__vector_dispatch_16)
/opt/microchip/xc32/v1.22/bin/../lib/gcc/pic32mx/4.5.2/../../../../pic32mx/lib/libpic32.a(vector17.o)
                              /opt/microchip/xc32/v1.22/bin/../lib/gcc/pic32mx/4.5.2/../../../../pic32mx/lib/./proc/32MX795F512L/default_isr_vectors.o (__vector_dispatch_17)
/opt/microchip/xc32/v1.22/bin/../lib/gcc/pic32mx/4.5.2/../../../../pic32mx/lib/libpic32.a(vector18.o)
                              /opt/microchip/xc32/v1.22/bin/../lib/gcc/pic32mx/4.5.2/../../../../pic32mx/lib/./proc/32MX795F512L/default_isr_vectors.o (__vector_dispatch_18)
/opt/microchip/xc32/v1.22/bin/../lib/gcc/pic32mx/4.5.2/../../../../pic32mx/lib/libpic32.a(vector19.o)
                              /opt/microchip/xc32/v1.22/bin/../lib/gcc/pic32mx/4.5.2/../../../../pic32mx/lib/./proc/32MX795F512L/default_isr_vectors.o (__vector_dispatch_19)
/opt/microchip/xc32/v1.22/bin/../lib/gcc/pic32mx/4.5.2/../../../../pic32mx/lib/libpic32.a(vector20.o)
                              /opt/microchip/xc32/v1.22/bin/../lib/gcc/pic32mx/4.5.2/../../../../pic32mx/lib/./proc/32MX795F512L/default_isr_vectors.o (__vector_dispatch_20)
/opt/microchip/xc32/v1.22/bin/../lib/gcc/pic32mx/4.5.2/../../../../pic32mx/lib/libpic32.a(vector21.o)
                              /opt/microchip/xc32/v1.22/bin/../lib/gcc/pic32mx/4.5.2/../../../../pic32mx/lib/./proc/32MX795F512L/default_isr_vectors.o (__vector_dispatch_21)
/opt/microchip/xc32/v1.22/bin/../lib/gcc/pic32mx/4.5.2/../../../../pic32mx/lib/libpic32.a(vector22.o)
                              /opt/microchip/xc32/v1.22/bin/../lib/gcc/pic32mx/4.5.2/../../../../pic32mx/lib/./proc/32MX795F512L/default_isr_vectors.o (__vector_dispatch_22)
/opt/microchip/xc32/v1.22/bin/../lib/gcc/pic32mx/4.5.2/../../../../pic32mx/lib/libpic32.a(vector23.o)
                              /opt/microchip/xc32/v1.22/bin/../lib/gcc/pic32mx/4.5.2/../../../../pic32mx/lib/./proc/32MX795F512L/default_isr_vectors.o (__vector_dispatch_23)
/opt/microchip/xc32/v1.22/bin/../lib/gcc/pic32mx/4.5.2/../../../../pic32mx/lib/libpic32.a(vector24.o)
                              /opt/microchip/xc32/v1.22/bin/../lib/gcc/pic32mx/4.5.2/../../../../pic32mx/lib/./proc/32MX795F512L/default_isr_vectors.o (__vector_dispatch_24)
/opt/microchip/xc32/v1.22/bin/../lib/gcc/pic32mx/4.5.2/../../../../pic32mx/lib/libpic32.a(vector25.o)
                              /opt/microchip/xc32/v1.22/bin/../lib/gcc/pic32mx/4.5.2/../../../../pic32mx/lib/./proc/32MX795F512L/default_isr_vectors.o (__vector_dispatch_25)
/opt/microchip/xc32/v1.22/bin/../lib/gcc/pic32mx/4.5.2/../../../../pic32mx/lib/libpic32.a(vector26.o)
                              /opt/microchip/xc32/v1.22/bin/../lib/gcc/pic32mx/4.5.2/../../../../pic32mx/lib/./proc/32MX795F512L/default_isr_vectors.o (__vector_dispatch_26)
/opt/microchip/xc32/v1.22/bin/../lib/gcc/pic32mx/4.5.2/../../../../pic32mx/lib/libpic32.a(vector27.o)
                              /opt/microchip/xc32/v1.22/bin/../lib/gcc/pic32mx/4.5.2/../../../../pic32mx/lib/./proc/32MX795F512L/default_isr_vectors.o (__vector_dispatch_27)
/opt/microchip/xc32/v1.22/bin/../lib/gcc/pic32mx/4.5.2/../../../../pic32mx/lib/libpic32.a(vector28.o)
                              /opt/microchip/xc32/v1.22/bin/../lib/gcc/pic32mx/4.5.2/../../../../pic32mx/lib/./proc/32MX795F512L/default_isr_vectors.o (__vector_dispatch_28)
/opt/microchip/xc32/v1.22/bin/../lib/gcc/pic32mx/4.5.2/../../../../pic32mx/lib/libpic32.a(vector29.o)
                              /opt/microchip/xc32/v1.22/bin/../lib/gcc/pic32mx/4.5.2/../../../../pic32mx/lib/./proc/32MX795F512L/default_isr_vectors.o (__vector_dispatch_29)
/opt/microchip/xc32/v1.22/bin/../lib/gcc/pic32mx/4.5.2/../../../../pic32mx/lib/libpic32.a(vector30.o)
                              /opt/microchip/xc32/v1.22/bin/../lib/gcc/pic32mx/4.5.2/../../../../pic32mx/lib/./proc/32MX795F512L/default_isr_vectors.o (__vector_dispatch_30)
/opt/microchip/xc32/v1.22/bin/../lib/gcc/pic32mx/4.5.2/../../../../pic32mx/lib/libpic32.a(vector31.o)
                              /opt/microchip/xc32/v1.22/bin/../lib/gcc/pic32mx/4.5.2/../../../../pic32mx/lib/./proc/32MX795F512L/default_isr_vectors.o (__vector_dispatch_31)
/opt/microchip/xc32/v1.22/bin/../lib/gcc/pic32mx/4.5.2/../../../../pic32mx/lib/libpic32.a(vector32.o)
                              /opt/microchip/xc32/v1.22/bin/../lib/gcc/pic32mx/4.5.2/../../../../pic32mx/lib/./proc/32MX795F512L/default_isr_vectors.o (__vector_dispatch_32)
/opt/microchip/xc32/v1.22/bin/../lib/gcc/pic32mx/4.5.2/../../../../pic32mx/lib/libpic32.a(vector33.o)
                              /opt/microchip/xc32/v1.22/bin/../lib/gcc/pic32mx/4.5.2/../../../../pic32mx/lib/./proc/32MX795F512L/default_isr_vectors.o (__vector_dispatch_33)
/opt/microchip/xc32/v1.22/bin/../lib/gcc/pic32mx/4.5.2/../../../../pic32mx/lib/libpic32.a(vector34.o)
                              /opt/microchip/xc32/v1.22/bin/../lib/gcc/pic32mx/4.5.2/../../../../pic32mx/lib/./proc/32MX795F512L/default_isr_vectors.o (__vector_dispatch_34)
/opt/microchip/xc32/v1.22/bin/../lib/gcc/pic32mx/4.5.2/../../../../pic32mx/lib/libpic32.a(vector35.o)
                              /opt/microchip/xc32/v1.22/bin/../lib/gcc/pic32mx/4.5.2/../../../../pic32mx/lib/./proc/32MX795F512L/default_isr_vectors.o (__vector_dispatch_35)
/opt/microchip/xc32/v1.22/bin/../lib/gcc/pic32mx/4.5.2/../../../../pic32mx/lib/libpic32.a(vector36.o)
                              /opt/microchip/xc32/v1.22/bin/../lib/gcc/pic32mx/4.5.2/../../../../pic32mx/lib/./proc/32MX795F512L/default_isr_vectors.o (__vector_dispatch_36)
/opt/microchip/xc32/v1.22/bin/../lib/gcc/pic32mx/4.5.2/../../../../pic32mx/lib/libpic32.a(vector37.o)
                              /opt/microchip/xc32/v1.22/bin/../lib/gcc/pic32mx/4.5.2/../../../../pic32mx/lib/./proc/32MX795F512L/default_isr_vectors.o (__vector_dispatch_37)
/opt/microchip/xc32/v1.22/bin/../lib/gcc/pic32mx/4.5.2/../../../../pic32mx/lib/libpic32.a(vector38.o)
                              /opt/microchip/xc32/v1.22/bin/../lib/gcc/pic32mx/4.5.2/../../../../pic32mx/lib/./proc/32MX795F512L/default_isr_vectors.o (__vector_dispatch_38)
/opt/microchip/xc32/v1.22/bin/../lib/gcc/pic32mx/4.5.2/../../../../pic32mx/lib/libpic32.a(vector39.o)
                              /opt/microchip/xc32/v1.22/bin/../lib/gcc/pic32mx/4.5.2/../../../../pic32mx/lib/./proc/32MX795F512L/default_isr_vectors.o (__vector_dispatch_39)
/opt/microchip/xc32/v1.22/bin/../lib/gcc/pic32mx/4.5.2/../../../../pic32mx/lib/libpic32.a(vector40.o)
                              /opt/microchip/xc32/v1.22/bin/../lib/gcc/pic32mx/4.5.2/../../../../pic32mx/lib/./proc/32MX795F512L/default_isr_vectors.o (__vector_dispatch_40)
/opt/microchip/xc32/v1.22/bin/../lib/gcc/pic32mx/4.5.2/../../../../pic32mx/lib/libpic32.a(vector41.o)
                              /opt/microchip/xc32/v1.22/bin/../lib/gcc/pic32mx/4.5.2/../../../../pic32mx/lib/./proc/32MX795F512L/default_isr_vectors.o (__vector_dispatch_41)
/opt/microchip/xc32/v1.22/bin/../lib/gcc/pic32mx/4.5.2/../../../../pic32mx/lib/libpic32.a(vector42.o)
                              /opt/microchip/xc32/v1.22/bin/../lib/gcc/pic32mx/4.5.2/../../../../pic32mx/lib/./proc/32MX795F512L/default_isr_vectors.o (__vector_dispatch_42)
/opt/microchip/xc32/v1.22/bin/../lib/gcc/pic32mx/4.5.2/../../../../pic32mx/lib/libpic32.a(vector43.o)
                              /opt/microchip/xc32/v1.22/bin/../lib/gcc/pic32mx/4.5.2/../../../../pic32mx/lib/./proc/32MX795F512L/default_isr_vectors.o (__vector_dispatch_43)
/opt/microchip/xc32/v1.22/bin/../lib/gcc/pic32mx/4.5.2/../../../../pic32mx/lib/libpic32.a(vector44.o)
                              /opt/microchip/xc32/v1.22/bin/../lib/gcc/pic32mx/4.5.2/../../../../pic32mx/lib/./proc/32MX795F512L/default_isr_vectors.o (__vector_dispatch_44)
/opt/microchip/xc32/v1.22/bin/../lib/gcc/pic32mx/4.5.2/../../../../pic32mx/lib/libpic32.a(vector45.o)
                              /opt/microchip/xc32/v1.22/bin/../lib/gcc/pic32mx/4.5.2/../../../../pic32mx/lib/./proc/32MX795F512L/default_isr_vectors.o (__vector_dispatch_45)
/opt/microchip/xc32/v1.22/bin/../lib/gcc/pic32mx/4.5.2/../../../../pic32mx/lib/libpic32.a(vector46.o)
                              /opt/microchip/xc32/v1.22/bin/../lib/gcc/pic32mx/4.5.2/../../../../pic32mx/lib/./proc/32MX795F512L/default_isr_vectors.o (__vector_dispatch_46)
/opt/microchip/xc32/v1.22/bin/../lib/gcc/pic32mx/4.5.2/../../../../pic32mx/lib/libpic32.a(vector47.o)
                              /opt/microchip/xc32/v1.22/bin/../lib/gcc/pic32mx/4.5.2/../../../../pic32mx/lib/./proc/32MX795F512L/default_isr_vectors.o (__vector_dispatch_47)
/opt/microchip/xc32/v1.22/bin/../lib/gcc/pic32mx/4.5.2/../../../../pic32mx/lib/libpic32.a(vector49.o)
                              /opt/microchip/xc32/v1.22/bin/../lib/gcc/pic32mx/4.5.2/../../../../pic32mx/lib/./proc/32MX795F512L/default_isr_vectors.o (__vector_dispatch_49)
/opt/microchip/xc32/v1.22/bin/../lib/gcc/pic32mx/4.5.2/../../../../pic32mx/lib/libpic32.a(vector50.o)
                              /opt/microchip/xc32/v1.22/bin/../lib/gcc/pic32mx/4.5.2/../../../../pic32mx/lib/./proc/32MX795F512L/default_isr_vectors.o (__vector_dispatch_50)
/opt/microchip/xc32/v1.22/bin/../lib/gcc/pic32mx/4.5.2/../../../../pic32mx/lib/libpic32.a(vector51.o)
                              /opt/microchip/xc32/v1.22/bin/../lib/gcc/pic32mx/4.5.2/../../../../pic32mx/lib/./proc/32MX795F512L/default_isr_vectors.o (__vector_dispatch_51)
/opt/microchip/xc32/v1.22/bin/../lib/gcc/pic32mx/4.5.2/../../../../pic32mx/lib/libpic32.a(vector52.o)
                              /opt/microchip/xc32/v1.22/bin/../lib/gcc/pic32mx/4.5.2/../../../../pic32mx/lib/./proc/32MX795F512L/default_isr_vectors.o (__vector_dispatch_52)
/opt/microchip/xc32/v1.22/bin/../lib/gcc/pic32mx/4.5.2/../../../../pic32mx/lib/libpic32.a(vector53.o)
                              /opt/microchip/xc32/v1.22/bin/../lib/gcc/pic32mx/4.5.2/../../../../pic32mx/lib/./proc/32MX795F512L/default_isr_vectors.o (__vector_dispatch_53)
/opt/microchip/xc32/v1.22/bin/../lib/gcc/pic32mx/4.5.2/../../../../pic32mx/lib/libpic32.a(vector54.o)
                              /opt/microchip/xc32/v1.22/bin/../lib/gcc/pic32mx/4.5.2/../../../../pic32mx/lib/./proc/32MX795F512L/default_isr_vectors.o (__vector_dispatch_54)
/opt/microchip/xc32/v1.22/bin/../lib/gcc/pic32mx/4.5.2/../../../../pic32mx/lib/libpic32.a(vector55.o)
                              /opt/microchip/xc32/v1.22/bin/../lib/gcc/pic32mx/4.5.2/../../../../pic32mx/lib/./proc/32MX795F512L/default_isr_vectors.o (__vector_dispatch_55)
/opt/microchip/xc32/v1.22/bin/../lib/gcc/pic32mx/4.5.2/../../../../pic32mx/lib/libpic32.a(vector56.o)
                              /opt/microchip/xc32/v1.22/bin/../lib/gcc/pic32mx/4.5.2/../../../../pic32mx/lib/./proc/32MX795F512L/default_isr_vectors.o (__vector_dispatch_56)
/opt/microchip/xc32/v1.22/bin/../lib/gcc/pic32mx/4.5.2/../../../../pic32mx/lib/libpic32.a(vector57.o)
                              /opt/microchip/xc32/v1.22/bin/../lib/gcc/pic32mx/4.5.2/../../../../pic32mx/lib/./proc/32MX795F512L/default_isr_vectors.o (__vector_dispatch_57)
/opt/microchip/xc32/v1.22/bin/../lib/gcc/pic32mx/4.5.2/../../../../pic32mx/lib/libpic32.a(vector58.o)
                              /opt/microchip/xc32/v1.22/bin/../lib/gcc/pic32mx/4.5.2/../../../../pic32mx/lib/./proc/32MX795F512L/default_isr_vectors.o (__vector_dispatch_58)
/opt/microchip/xc32/v1.22/bin/../lib/gcc/pic32mx/4.5.2/../../../../pic32mx/lib/libpic32.a(vector59.o)
                              /opt/microchip/xc32/v1.22/bin/../lib/gcc/pic32mx/4.5.2/../../../../pic32mx/lib/./proc/32MX795F512L/default_isr_vectors.o (__vector_dispatch_59)
/opt/microchip/xc32/v1.22/bin/../lib/gcc/pic32mx/4.5.2/../../../../pic32mx/lib/libpic32.a(vector60.o)
                              /opt/microchip/xc32/v1.22/bin/../lib/gcc/pic32mx/4.5.2/../../../../pic32mx/lib/./proc/32MX795F512L/default_isr_vectors.o (__vector_dispatch_60)
/opt/microchip/xc32/v1.22/bin/../lib/gcc/pic32mx/4.5.2/../../../../pic32mx/lib/libpic32.a(vector61.o)
                              /opt/microchip/xc32/v1.22/bin/../lib/gcc/pic32mx/4.5.2/../../../../pic32mx/lib/./proc/32MX795F512L/default_isr_vectors.o (__vector_dispatch_61)
/opt/microchip/xc32/v1.22/bin/../lib/gcc/pic32mx/4.5.2/../../../../pic32mx/lib/libpic32.a(vector62.o)
                              /opt/microchip/xc32/v1.22/bin/../lib/gcc/pic32mx/4.5.2/../../../../pic32mx/lib/./proc/32MX795F512L/default_isr_vectors.o (__vector_dispatch_62)
/opt/microchip/xc32/v1.22/bin/../lib/gcc/pic32mx/4.5.2/../../../../pic32mx/lib/libpic32.a(vector63.o)
                              /opt/microchip/xc32/v1.22/bin/../lib/gcc/pic32mx/4.5.2/../../../../pic32mx/lib/./proc/32MX795F512L/default_isr_vectors.o (__vector_dispatch_63)
/opt/microchip/xc32/v1.22/bin/../lib/gcc/pic32mx/4.5.2/../../../../pic32mx/lib/libpic32.a(default-general-exception-handler.o)
                              /opt/microchip/xc32/v1.22/bin/../lib/gcc/pic32mx/4.5.2/../../../../pic32mx/lib/libpic32.a(general-exception.o) (_general_exception_handler)
/opt/microchip/xc32/v1.22/bin/../lib/gcc/pic32mx/4.5.2/../../../../pic32mx/lib/libpic32.a(defaultinterrupt.o)
                              /opt/microchip/xc32/v1.22/bin/../lib/gcc/pic32mx/4.5.2/../../../../pic32mx/lib/libpic32.a(vector0.o) (_DefaultInterrupt)
/opt/microchip/xc32/v1.22/bin/../lib/gcc/pic32mx/4.5.2/../../../../pic32mx/lib/libdebug.a(db_utils.o)
                              build/default/debug/src/main.o (_pic32mxsk_init)
/opt/microchip/xc32/v1.22/bin/../lib/gcc/pic32mx/4.5.2/../../../../pic32mx/lib/libpic32.a(xc32_uart.o)
                              /opt/microchip/xc32/v1.22/bin/../lib/gcc/pic32mx/4.5.2/../../../../pic32mx/lib/libdebug.a(db_utils.o) (__XC_UART)
/opt/microchip/xc32/v1.22/bin/../lib/gcc/pic32mx/4.5.2/../../../../pic32mx/lib/libc.a(_iob.o)
                              /opt/microchip/xc32/v1.22/bin/../lib/gcc/pic32mx/4.5.2/../../../../pic32mx/lib/libdebug.a(db_utils.o) (_iob)
/opt/microchip/xc32/v1.22/bin/../lib/gcc/pic32mx/4.5.2/../../../../pic32mx/lib/libc.a(calloc.o)
                              build/default/debug/contrib/ports/microchip/netif/Microchip_eth.o (calloc)
/opt/microchip/xc32/v1.22/bin/../lib/gcc/pic32mx/4.5.2/../../../../pic32mx/lib/libc.a(malloc.o)
                              build/default/debug/freertos/heap/heap_3.o (malloc)
/opt/microchip/xc32/v1.22/bin/../lib/gcc/pic32mx/4.5.2/../../../../pic32mx/lib/libc.a(puts.o)
                              build/default/debug/contrib/ports/microchip/netif/Microchip_eth.o (puts)
/opt/microchip/xc32/v1.22/bin/../lib/gcc/pic32mx/4.5.2/../../../../pic32mx/lib/libc.a(rand.o)
                              build/default/debug/lwip-1.4.1/src/core/dhcp.o (rand)
/opt/microchip/xc32/v1.22/bin/../lib/gcc/pic32mx/4.5.2/../../../../pic32mx/lib/libc.a(setbuf.o)
                              /opt/microchip/xc32/v1.22/bin/../lib/gcc/pic32mx/4.5.2/../../../../pic32mx/lib/libdebug.a(db_utils.o) (setvbuf)
/opt/microchip/xc32/v1.22/bin/../lib/gcc/pic32mx/4.5.2/../../../../pic32mx/lib/libc.a(strncmp.o)
                              build/default/debug/src/echo.o (strncmp)
/opt/microchip/xc32/v1.22/bin/../lib/gcc/pic32mx/4.5.2/../../../../pic32mx/lib/libc.a(printf_cdnopsuxX.eo)
                              build/default/debug/freertos/port.o (_printf_cdnopsuxX)
/opt/microchip/xc32/v1.22/bin/../lib/gcc/pic32mx/4.5.2/../../../../pic32mx/lib/libc.a(printf_cdnopuxX.eo)
                              build/default/debug/contrib/ports/microchip/netif/Microchip_eth.o (_printf_cdnopuxX)
/opt/microchip/xc32/v1.22/bin/../lib/gcc/pic32mx/4.5.2/../../../../pic32mx/lib/libc.a(printf_s.eo)
                              build/default/debug/src/main.o (_printf_0)
/opt/microchip/xc32/v1.22/bin/../lib/gcc/pic32mx/4.5.2/../../../../pic32mx/lib/libc.a(printf.o)
                              build/default/debug/src/ip_lwip.o (printf)
/opt/microchip/xc32/v1.22/bin/../lib/gcc/pic32mx/4.5.2/../../../../pic32mx/lib/libc.a(_fputc_simple.o)
                              /opt/microchip/xc32/v1.22/bin/../lib/gcc/pic32mx/4.5.2/../../../../pic32mx/lib/libc.a(puts.o) (fputc)
/opt/microchip/xc32/v1.22/bin/../lib/gcc/pic32mx/4.5.2/../../../../pic32mx/lib/libc.a(buf.o)
                              /opt/microchip/xc32/v1.22/bin/../lib/gcc/pic32mx/4.5.2/../../../../pic32mx/lib/libc.a(setbuf.o) (_bufallo)
/opt/microchip/xc32/v1.22/bin/../lib/gcc/pic32mx/4.5.2/../../../../pic32mx/lib/libc.a(errno.o)
                              /opt/microchip/xc32/v1.22/bin/../lib/gcc/pic32mx/4.5.2/../../../../pic32mx/lib/libc.a(buf.o) (errno)
/opt/microchip/xc32/v1.22/bin/../lib/gcc/pic32mx/4.5.2/../../../../pic32mx/lib/libc.a(doprnt_cdnopsuxX.eo)
                              /opt/microchip/xc32/v1.22/bin/../lib/gcc/pic32mx/4.5.2/../../../../pic32mx/lib/libc.a(printf_cdnopsuxX.eo) (_vfprintf_cdnopsuxX)
/opt/microchip/xc32/v1.22/bin/../lib/gcc/pic32mx/4.5.2/../../../../pic32mx/lib/libc.a(doprnt_cdnopuxX.eo)
                              /opt/microchip/xc32/v1.22/bin/../lib/gcc/pic32mx/4.5.2/../../../../pic32mx/lib/libc.a(printf_cdnopuxX.eo) (_vfprintf_cdnopuxX)
/opt/microchip/xc32/v1.22/bin/../lib/gcc/pic32mx/4.5.2/../../../../pic32mx/lib/libc.a(doprnt_s.eo)
                              /opt/microchip/xc32/v1.22/bin/../lib/gcc/pic32mx/4.5.2/../../../../pic32mx/lib/libc.a(printf_s.eo) (_vfprintf_s)
/opt/microchip/xc32/v1.22/bin/../lib/gcc/pic32mx/4.5.2/../../../../pic32mx/lib/libc.a(doprnt.o)
                              /opt/microchip/xc32/v1.22/bin/../lib/gcc/pic32mx/4.5.2/../../../../pic32mx/lib/libc.a(printf.o) (vfprintf)
/opt/microchip/xc32/v1.22/bin/../lib/gcc/pic32mx/4.5.2/../../../../pic32mx/lib/libc.a(_flsbuf_simple.o)
                              /opt/microchip/xc32/v1.22/bin/../lib/gcc/pic32mx/4.5.2/../../../../pic32mx/lib/libc.a(_fputc_simple.o) (_flsbuf)
/opt/microchip/xc32/v1.22/bin/../lib/gcc/pic32mx/4.5.2/../../../../pic32mx/lib/libc.a(ctype.o)
                              /opt/microchip/xc32/v1.22/bin/../lib/gcc/pic32mx/4.5.2/../../../../pic32mx/lib/libc.a(doprnt_cdnopsuxX.eo) (_ctype)
/opt/microchip/xc32/v1.22/bin/../lib/gcc/pic32mx/4.5.2/../../../../pic32mx/lib/libc.a(powersf.o)
                              /opt/microchip/xc32/v1.22/bin/../lib/gcc/pic32mx/4.5.2/../../../../pic32mx/lib/libc.a(doprnt.o) (_powers_f)
/opt/microchip/xc32/v1.22/bin/../lib/gcc/pic32mx/4.5.2/../../../../pic32mx/lib/libpic32.a(sbrk.o)
                              /opt/microchip/xc32/v1.22/bin/../lib/gcc/pic32mx/4.5.2/../../../../pic32mx/lib/libc.a(malloc.o) (sbrk)
/opt/microchip/xc32/v1.22/bin/../lib/gcc/pic32mx/4.5.2/../../../../pic32mx/lib/libpic32.a(write.o)
                              /opt/microchip/xc32/v1.22/bin/../lib/gcc/pic32mx/4.5.2/../../../../pic32mx/lib/libc.a(_fputc_simple.o) (write)
/opt/microchip/xc32/v1.22/bin/../lib/gcc/pic32mx/4.5.2/../../../../pic32mx/lib/libm.a(fpmod32.o)
                              /opt/microchip/xc32/v1.22/bin/../lib/gcc/pic32mx/4.5.2/../../../../pic32mx/lib/libc.a(doprnt.o) (frexpf)
/opt/microchip/xc32/v1.22/bin/../lib/gcc/pic32mx/4.5.2/../../../../pic32mx/lib/libm.a(fp32.o)
                              /opt/microchip/xc32/v1.22/bin/../lib/gcc/pic32mx/4.5.2/../../../../pic32mx/lib/libc.a(doprnt.o) (fpsub)
/opt/microchip/xc32/v1.22/bin/../lib/gcc/pic32mx/4.5.2/../../../../pic32mx/lib/libe.a(_floatdisf.o)
                              /opt/microchip/xc32/v1.22/bin/../lib/gcc/pic32mx/4.5.2/../../../../pic32mx/lib/libc.a(doprnt.o) (__floatdisf)
/opt/microchip/xc32/v1.22/bin/../lib/gcc/pic32mx/4.5.2/libgcc.a(_floatundisf.o)
                              /opt/microchip/xc32/v1.22/bin/../lib/gcc/pic32mx/4.5.2/../../../../pic32mx/lib/libc.a(doprnt.o) (__floatundisf)
/opt/microchip/xc32/v1.22/bin/../lib/gcc/pic32mx/4.5.2/libgcc.a(_udivdi3.o)
                              /opt/microchip/xc32/v1.22/bin/../lib/gcc/pic32mx/4.5.2/../../../../pic32mx/lib/libc.a(doprnt_cdnopsuxX.eo) (__udivdi3)
/opt/microchip/xc32/v1.22/bin/../lib/gcc/pic32mx/4.5.2/libgcc.a(_umoddi3.o)
                              /opt/microchip/xc32/v1.22/bin/../lib/gcc/pic32mx/4.5.2/../../../../pic32mx/lib/libc.a(doprnt_cdnopsuxX.eo) (__umoddi3)
/opt/microchip/xc32/v1.22/bin/../lib/gcc/pic32mx/4.5.2/libgcc.a(floatunsisf.o)
                              /opt/microchip/xc32/v1.22/bin/../lib/gcc/pic32mx/4.5.2/../../../../pic32mx/lib/libc.a(doprnt.o) (__floatunsisf)

Allocating common symbols
Common symbol       size              file

current_iphdr_src   0x4               build/default/debug/lwip-1.4.1/src/core/ipv4/ip.o
pxDelayedTaskList   0x4               build/default/debug/freertos/tasks.o
_PhyAdd             0x4               build/default/debug/contrib/ports/microchip/netif/ETHPIC32ExtPhy.o
tcp_tw_pcbs         0x4               build/default/debug/lwip-1.4.1/src/core/tcp.o
tcp_ticks           0x4               build/default/debug/lwip-1.4.1/src/core/tcp.o
udp_pcbs            0x4               build/default/debug/lwip-1.4.1/src/core/udp.o
tcp_tmp_pcb         0x4               build/default/debug/lwip-1.4.1/src/core/tcp.o
tcp_listen_pcbs     0x4               build/default/debug/lwip-1.4.1/src/core/tcp.o
xDelayedCoRoutineList2
                    0x14              build/default/debug/freertos/croutine.o
netif_default       0x4               build/default/debug/lwip-1.4.1/src/core/netif.o
tcp_active_pcbs     0x4               build/default/debug/lwip-1.4.1/src/core/tcp.o
xDelayedCoRoutineList1
                    0x14              build/default/debug/freertos/croutine.o
current_netif       0x4               build/default/debug/lwip-1.4.1/src/core/ipv4/ip.o
pxReadyTasksLists   0x64              build/default/debug/freertos/tasks.o
pxOverflowDelayedTaskList
                    0x4               build/default/debug/freertos/tasks.o
tcp_bound_pcbs      0x4               build/default/debug/lwip-1.4.1/src/core/tcp.o
ram_heap            0x2014            build/default/debug/lwip-1.4.1/src/core/mem.o
xPendingReadyList   0x14              build/default/debug/freertos/tasks.o
pxReadyCoRoutineLists
                    0x28              build/default/debug/freertos/croutine.o
xTasksWaitingTermination
                    0x14              build/default/debug/freertos/tasks.o
pxOverflowDelayedCoRoutineList
                    0x4               build/default/debug/freertos/croutine.o
current_header      0x4               build/default/debug/lwip-1.4.1/src/core/ipv4/ip.o
xPendingReadyCoRoutineList
                    0x14              build/default/debug/freertos/croutine.o
tcp_active_pcbs_changed
                    0x1               build/default/debug/lwip-1.4.1/src/core/tcp.o
tcp_input_pcb       0x4               build/default/debug/lwip-1.4.1/src/core/tcp_in.o
pbuf_free_ooseq_pending
                    0x1               build/default/debug/lwip-1.4.1/src/core/pbuf.o
pxDelayedCoRoutineList
                    0x4               build/default/debug/freertos/croutine.o
dhcp_rx_options_val
                    0x28              build/default/debug/lwip-1.4.1/src/core/dhcp.o
dhcp_rx_options_given
                    0xa               build/default/debug/lwip-1.4.1/src/core/dhcp.o
xSuspendedTaskList  0x14              build/default/debug/freertos/tasks.o
current_iphdr_dest  0x4               build/default/debug/lwip-1.4.1/src/core/ipv4/ip.o
xDelayedTaskList2   0x14              build/default/debug/freertos/tasks.o
xDelayedTaskList1   0x14              build/default/debug/freertos/tasks.o
netif_list          0x4               build/default/debug/lwip-1.4.1/src/core/netif.o

Microchip PIC32 Memory-Usage Report

kseg0 Program-Memory Usage
section                    address  length [bytes]      (dec)  Description
-------                 ----------  -------------------------  -----------
.text                   0x9d000000        0x146b0       83632  App's exec code 
.text.vfprintf          0x9d0146b0         0x1bb0        7088   
.text                   0x9d016260         0xc8b8       51384  App's exec code 
.text._vfprintf_cdnopsu 0x9d022b18          0xad0        2768   
.text                   0x9d0235e8         0x4d7c       19836  App's exec code 
.rodata                 0x9d028364          0x7d4        2004  Read-only const 
.text                   0x9d028b38          0xd8c        3468  App's exec code 
.rodata                 0x9d0298c4          0x5a0        1440  Read-only const 
.text                   0x9d029e64         0x1e30        7728  App's exec code 
.dinit                  0x9d02bc94          0x350         848   
.text                   0x9d02bfe4          0x2b8         696  App's exec code 
.text.scale             0x9d02c29c          0x2a0         672   
.rodata                 0x9d02c53c          0x29c         668  Read-only const 
.text                   0x9d02c7d8          0x290         656  App's exec code 
.text.malloc            0x9d02ca68          0x288         648   
.text.EthRxBuffersAppen 0x9d02ccf0          0x260         608   
.text.__floatdisf       0x9d02cf50          0x220         544   
.text._EthAckPacket     0x9d02d170          0x1dc         476   
.text                   0x9d02d34c          0x1c4         452  App's exec code 
.text.fround            0x9d02d510          0x1a4         420   
.text.realloc           0x9d02d6b4          0x194         404   
.text._sbrk_init        0x9d02d848          0x194         404   
.text._EthRxAckBuffer   0x9d02d9dc          0x184         388   
.text.EthRxGetPacket    0x9d02db60          0x180         384   
.rodata                 0x9d02dce0          0x168         360  Read-only const 
.text                   0x9d02de48          0x2d0         720  App's exec code 
.text.fputc             0x9d02e118          0x15c         348   
.text                   0x9d02e274          0x14c         332  App's exec code 
.text.EthTxSendPacket   0x9d02e3c0          0x14c         332   
.text._EthAppendBusyLis 0x9d02e50c          0x144         324   
.text.EthDescriptorsPoo 0x9d02e650          0x134         308   
.text.EthDescriptorsAdd 0x9d02e784          0x12c         300   
.text._flsbuf           0x9d02e8b0          0x12c         300   
.text                   0x9d02e9dc          0x124         292  App's exec code 
.rodata                 0x9d02eb00          0x104         260  Read-only const 
.text.setvbuf           0x9d02ec04           0xfc         252   
.rodata                 0x9d02ed00           0xf8         248  Read-only const 
.text                   0x9d02edf8          0x1e8         488  App's exec code 
.rodata                 0x9d02efe0           0xe8         232  Read-only const 
.text                   0x9d02f0c8           0xd4         212  App's exec code 
.text.general_exception 0x9d02f19c           0xd0         208   
.rodata                 0x9d02f270          0x19c         412  Read-only const 
.text._sbrk             0x9d02f40c           0xc4         196   
.text.EthTxSendBuffer   0x9d02f4d0           0xc0         192   
.text                   0x9d02f590           0xb8         184  App's exec code 
.text.StarterKitIO      0x9d02f648           0xb8         184   
.text.EthInit           0x9d02f700           0xb4         180   
.text.EthMACOpen        0x9d02f7b4           0xb4         180   
.rodata                 0x9d02f868           0xac         172  Read-only const 
.text._EthTxSchedBuffer 0x9d02f914           0xac         172   
.text                   0x9d02f9c0          0x140         320  App's exec code 
.text.rand              0x9d02fb00           0x98         152   
.text.write             0x9d02fb98           0x94         148   
.text._EthTxSchedList   0x9d02fc2c           0x8c         140   
.text                   0x9d02fcb8           0x80         128  App's exec code 
.text.EthMIIMConfig     0x9d02fd38           0x80         128   
.text.fputs             0x9d02fdb8           0x78         120   
.text.strncmp           0x9d02fe30           0x78         120   
.text.EthTxGetBufferSta 0x9d02fea8           0x70         112   
.text.EthRxFiltersPMSet 0x9d02ff18           0x6c         108   
.rodata                 0x9d02ff84          0x130         304  Read-only const 
.text.calloc            0x9d0300b4           0x5c          92   
.rodata                 0x9d030110           0x54          84  Read-only const 
.text._bufallo          0x9d030164           0x54          84   
.text.INTEnable         0x9d0301b8           0x50          80   
.text.sbrk              0x9d030208           0x50          80   
.text                   0x9d030258           0x4c          76  App's exec code 
.text.EthMACSetAddress  0x9d0302a4           0x48          72   
.text.EthMACGetAddress  0x9d0302ec           0x44          68   
.text.puts              0x9d030330           0x44          68   
.rodata                 0x9d030374           0x40          64  Read-only const 
.text.EthMIIMReadStart  0x9d0303b4           0x40          64   
.text._printf_cdnopsuxX 0x9d0303f4           0x40          64   
.text.printf            0x9d030434           0x40          64   
.text.EthRxGetBuffer    0x9d030474           0x3c          60   
.text.PORTSetPinsDigita 0x9d0304b0           0x3c          60   
.text.PORTSetPinsDigita 0x9d0304ec           0x3c          60   
.rodata                 0x9d030528           0x38          56  Read-only const 
.text._EthFindPacket    0x9d030560           0x38          56   
.text.EthMIIMWriteStart 0x9d030598           0x38          56   
.text.INTSetVectorPrior 0x9d0305d0           0x38          56   
.text.INTSetVectorSubPr 0x9d030608           0x38          56   
.text                   0x9d030640           0x34          52  App's exec code 
.text.EthMIIMScanStart  0x9d030674           0x34          52   
.text.EthTxAcknowledgeB 0x9d0306a8           0x30          48   
.text.EthTxAckBuffer    0x9d0306d8           0x30          48   
.text.EthRxSetBufferSiz 0x9d030708           0x30          48   
.text.free              0x9d030738           0x30          48   
.text.INTGetVectorPrior 0x9d030768           0x2c          44   
.text.INTGetVectorSubPr 0x9d030794           0x2c          44   
.text._stub_sbd_memlayo 0x9d0307c0           0x2c          44   
.text.EthMIIMReadResult 0x9d0307ec           0x28          40   
.text.INTClearFlag      0x9d030814           0x28          40   
.text.INTSetFlag        0x9d03083c           0x28          40   
.text.INTGetFlag        0x9d030864           0x28          40   
.text.INTGetEnable      0x9d03088c           0x28          40   
.text.EthMIIMScanResult 0x9d0308b4           0x20          32   
.rodata                 0x9d0308d4           0x38          56  Read-only const 
.text.EthRxAcknowledgeB 0x9d03090c           0x1c          28   
.text.EthRxAckBuffer    0x9d030928           0x1c          28   
.text.srand             0x9d030944           0x1c          28   
.text.setbuf            0x9d030960           0x1c          28   
.text.EthRxFiltersHTSet 0x9d03097c           0x18          24   
.text                   0x9d030994           0x18          24  App's exec code 
.rodata                 0x9d0309ac           0x14          20  Read-only const 
.text.EthMACSetMaxFrame 0x9d0309c0           0x14          20   
.text.EthRxFiltersPMClr 0x9d0309d4           0x14          20   
.text._buffree          0x9d0309e8           0x14          20   
.rodata                 0x9d0309fc           0x20          32  Read-only const 
.text.EthRxFiltersSet   0x9d030a1c           0x10          16   
.text.EthRxFiltersClr   0x9d030a2c           0x10          16   
.text.EthRxFiltersWrite 0x9d030a3c           0x10          16   
.rodata                 0x9d030a4c           0x18          24  Read-only const 
.text.ReadCoreTimer     0x9d030a64            0x8           8   
.text._bootstrap_except 0x9d030a6c            0x8           8   
.text._on_reset         0x9d030a74            0x8           8   
.text._on_bootstrap     0x9d030a7c            0x8           8   
.text._general_exceptio 0x9d030a84            0x8           8   
.vector_default         0x9d030a8c            0x8           8   
.text.getpagesize       0x9d030a94            0x8           8   
.rodata                 0x9d030a9c            0x8           8  Read-only const 
      Total kseg0_program_mem used  :     0x30aa0      199328  38.0% of 0x80000

kseg0 Boot-Memory Usage
section                    address  length [bytes]      (dec)  Description
-------                 ----------  -------------------------  -----------
         Total kseg0_boot_mem used  :           0           0  <1% of 0x970

Exception-Memory Usage 
section                    address  length [bytes]      (dec)  Description
-------                 ----------  -------------------------  -----------
.app_excpt              0x9fc01180           0x10          16  General-Exception 
.vector_0               0x9fc01200            0x8           8  Interrupt Vector 0 
.vector_1               0x9fc01220            0x8           8  Interrupt Vector 1 
.vector_2               0x9fc01240            0x8           8  Interrupt Vector 2 
.vector_3               0x9fc01260            0x8           8  Interrupt Vector 3 
.vector_4               0x9fc01280            0x8           8  Interrupt Vector 4 
.vector_5               0x9fc012a0            0x8           8  Interrupt Vector 5 
.vector_6               0x9fc012c0            0x8           8  Interrupt Vector 6 
.vector_7               0x9fc012e0            0x8           8  Interrupt Vector 7 
.vector_8               0x9fc01300            0x8           8  Interrupt Vector 8 
.vector_9               0x9fc01320            0x8           8  Interrupt Vector 9 
.vector_10              0x9fc01340            0x8           8  Interrupt Vector 10 
.vector_11              0x9fc01360            0x8           8  Interrupt Vector 11 
.vector_12              0x9fc01380            0x8           8  Interrupt Vector 12 
.vector_13              0x9fc013a0            0x8           8  Interrupt Vector 13 
.vector_14              0x9fc013c0            0x8           8  Interrupt Vector 14 
.vector_15              0x9fc013e0            0x8           8  Interrupt Vector 15 
.vector_16              0x9fc01400            0x8           8  Interrupt Vector 16 
.vector_17              0x9fc01420            0x8           8  Interrupt Vector 17 
.vector_18              0x9fc01440            0x8           8  Interrupt Vector 18 
.vector_19              0x9fc01460            0x8           8  Interrupt Vector 19 
.vector_20              0x9fc01480            0x8           8  Interrupt Vector 20 
.vector_21              0x9fc014a0            0x8           8  Interrupt Vector 21 
.vector_22              0x9fc014c0            0x8           8  Interrupt Vector 22 
.vector_23              0x9fc014e0            0x8           8  Interrupt Vector 23 
.vector_24              0x9fc01500            0x8           8  Interrupt Vector 24 
.vector_25              0x9fc01520            0x8           8  Interrupt Vector 25 
.vector_26              0x9fc01540            0x8           8  Interrupt Vector 26 
.vector_27              0x9fc01560            0x8           8  Interrupt Vector 27 
.vector_28              0x9fc01580            0x8           8  Interrupt Vector 28 
.vector_29              0x9fc015a0            0x8           8  Interrupt Vector 29 
.vector_30              0x9fc015c0            0x8           8  Interrupt Vector 30 
.vector_31              0x9fc015e0            0x8           8  Interrupt Vector 31 
.vector_32              0x9fc01600            0x8           8  Interrupt Vector 32 
.vector_33              0x9fc01620            0x8           8  Interrupt Vector 33 
.vector_34              0x9fc01640            0x8           8  Interrupt Vector 34 
.vector_35              0x9fc01660            0x8           8  Interrupt Vector 35 
.vector_36              0x9fc01680            0x8           8  Interrupt Vector 36 
.vector_37              0x9fc016a0            0x8           8  Interrupt Vector 37 
.vector_38              0x9fc016c0            0x8           8  Interrupt Vector 38 
.vector_39              0x9fc016e0            0x8           8  Interrupt Vector 39 
.vector_40              0x9fc01700            0x8           8  Interrupt Vector 40 
.vector_41              0x9fc01720            0x8           8  Interrupt Vector 41 
.vector_42              0x9fc01740            0x8           8  Interrupt Vector 42 
.vector_43              0x9fc01760            0x8           8  Interrupt Vector 43 
.vector_44              0x9fc01780            0x8           8  Interrupt Vector 44 
.vector_45              0x9fc017a0            0x8           8  Interrupt Vector 45 
.vector_46              0x9fc017c0            0x8           8  Interrupt Vector 46 
.vector_47              0x9fc017e0            0x8           8  Interrupt Vector 47 
.vector_48              0x9fc01800            0x8           8  Interrupt Vector 48 
.vector_49              0x9fc01820            0x8           8  Interrupt Vector 49 
.vector_50              0x9fc01840            0x8           8  Interrupt Vector 50 
.vector_51              0x9fc01860            0x8           8  Interrupt Vector 51 
.vector_52              0x9fc01880            0x8           8  Interrupt Vector 52 
.vector_53              0x9fc018a0            0x8           8  Interrupt Vector 53 
.vector_54              0x9fc018c0            0x8           8  Interrupt Vector 54 
.vector_55              0x9fc018e0            0x8           8  Interrupt Vector 55 
.vector_56              0x9fc01900            0x8           8  Interrupt Vector 56 
.vector_57              0x9fc01920            0x8           8  Interrupt Vector 57 
.vector_58              0x9fc01940            0x8           8  Interrupt Vector 58 
.vector_59              0x9fc01960            0x8           8  Interrupt Vector 59 
.vector_60              0x9fc01980            0x8           8  Interrupt Vector 60 
.vector_61              0x9fc019a0            0x8           8  Interrupt Vector 61 
.vector_62              0x9fc019c0            0x8           8  Interrupt Vector 62 
.vector_63              0x9fc019e0            0x8           8  Interrupt Vector 63 
          Total exception_mem used  :       0x210         528  12.9% of 0x1000

kseg1 Boot-Memory Usage
section                    address  length [bytes]      (dec)  Description
-------                 ----------  -------------------------  -----------
.reset                  0xbfc00000          0x1f4         500  Reset handler 
.bev_excpt              0xbfc00380           0x10          16  BEV-Exception 
.dbg_excpt              0xbfc00480            0x8           8   
         Total kseg1_boot_mem used  :       0x20c         524  44.9% of 0x490
        --------------------------------------------------------------------------
         Total Program Memory used  :     0x30ebc      200380  37.7% of 0x81e00
        --------------------------------------------------------------------------


kseg1 Data-Memory Usage
section                    address  length [bytes]      (dec)  Description
-------                 ----------  -------------------------  -----------
.dbg_data               0xa0000000          0x200         512  Memory reserved for debugger exec 
.eh_frame               0xa0000200           0x30          48   
.sdata                  0xa0000230           0x20          32  Small init data 
.sbss                   0xa0000250          0x150         336  Small uninit data 
.bss                    0xa00003a0         0x2174        8564  Uninitialized data 
.bss                    0xa0002514         0x71e0       29152  Uninitialized data 
.data                   0xa00096f4           0xa0         160  Initialized data 
.bss                    0xa0009794          0x128         296  Uninitialized data 
         Total kseg1_data_mem used  :      0x98bc       39100  29.8% of 0x20000
        --------------------------------------------------------------------------
            Total Data Memory used  :      0x98bc       39100  29.8% of 0x20000
        --------------------------------------------------------------------------


Dynamic Data-Memory Reservation
section                    address  length [bytes]      (dec)  Description
-------                 ----------  -------------------------  -----------
heap                    0xa00098c0         0x9c40       40000  Reserved for heap 
stack                   0xa0013518         0xcad8       51928  Reserved for stack 

        --------------------------------------------------------------------------

Discarded input sections

 .reginfo       0x00000000       0x18 build/default/debug/contrib/ports/microchip/netif/ETHPIC32ExtPhyDP83848.o
 .discard       0x00000000       0x74 build/default/debug/contrib/ports/microchip/netif/ETHPIC32ExtPhyDP83848.o
 .reginfo       0x00000000       0x18 build/default/debug/contrib/ports/microchip/netif/xadapter.o
 .reginfo       0x00000000       0x18 build/default/debug/contrib/ports/microchip/netif/Microchip_eth.o
 .discard       0x00000000       0x74 build/default/debug/contrib/ports/microchip/netif/Microchip_eth.o
 .reginfo       0x00000000       0x18 build/default/debug/contrib/ports/microchip/netif/ETHPIC32ExtPhy.o
 .discard       0x00000000       0x74 build/default/debug/contrib/ports/microchip/netif/ETHPIC32ExtPhy.o
 .reginfo       0x00000000       0x18 build/default/debug/contrib/ports/microchip/sys_arch_raw.o
 .discard       0x00000000       0x74 build/default/debug/contrib/ports/microchip/sys_arch_raw.o
 .reginfo       0x00000000       0x18 build/default/debug/contrib/ports/microchip/sys_arch.o
 .discard       0x00000000       0x74 build/default/debug/contrib/ports/microchip/sys_arch.o
 .reginfo       0x00000000       0x18 build/default/debug/contrib/ports/microchip/ethernetif.o
 .discard       0x00000000       0x74 build/default/debug/contrib/ports/microchip/ethernetif.o
 .reginfo       0x00000000       0x18 build/default/debug/freertos/heap/heap_3.o
 .discard       0x00000000       0x74 build/default/debug/freertos/heap/heap_3.o
 .reginfo       0x00000000       0x18 build/default/debug/freertos/timers.o
 .discard       0x00000000       0x74 build/default/debug/freertos/timers.o
 .reginfo       0x00000000       0x18 build/default/debug/freertos/port.o
 .discard       0x00000000       0x74 build/default/debug/freertos/port.o
 .reginfo       0x00000000       0x18 build/default/debug/freertos/port_asm.o
 .reginfo       0x00000000       0x18 build/default/debug/freertos/list.o
 .discard       0x00000000       0x74 build/default/debug/freertos/list.o
 .reginfo       0x00000000       0x18 build/default/debug/freertos/tasks.o
 .discard       0x00000000       0x74 build/default/debug/freertos/tasks.o
 .reginfo       0x00000000       0x18 build/default/debug/freertos/croutine.o
 .discard       0x00000000       0x74 build/default/debug/freertos/croutine.o
 .reginfo       0x00000000       0x18 build/default/debug/freertos/queue.o
 .discard       0x00000000       0x74 build/default/debug/freertos/queue.o
 .reginfo       0x00000000       0x18 build/default/debug/lwip-1.4.1/src/api/api_msg.o
 .discard       0x00000000       0x74 build/default/debug/lwip-1.4.1/src/api/api_msg.o
 .reginfo       0x00000000       0x18 build/default/debug/lwip-1.4.1/src/api/netbuf.o
 .reginfo       0x00000000       0x18 build/default/debug/lwip-1.4.1/src/api/netdb.o
 .reginfo       0x00000000       0x18 build/default/debug/lwip-1.4.1/src/api/tcpip.o
 .discard       0x00000000       0x74 build/default/debug/lwip-1.4.1/src/api/tcpip.o
 .reginfo       0x00000000       0x18 build/default/debug/lwip-1.4.1/src/api/sockets.o
 .discard       0x00000000       0x74 build/default/debug/lwip-1.4.1/src/api/sockets.o
 .reginfo       0x00000000       0x18 build/default/debug/lwip-1.4.1/src/api/netifapi.o
 .reginfo       0x00000000       0x18 build/default/debug/lwip-1.4.1/src/api/err.o
 .reginfo       0x00000000       0x18 build/default/debug/lwip-1.4.1/src/api/api_lib.o
 .discard       0x00000000       0x74 build/default/debug/lwip-1.4.1/src/api/api_lib.o
 .reginfo       0x00000000       0x18 build/default/debug/lwip-1.4.1/src/core/ipv4/autoip.o
 .reginfo       0x00000000       0x18 build/default/debug/lwip-1.4.1/src/core/ipv4/ip_addr.o
 .reginfo       0x00000000       0x18 build/default/debug/lwip-1.4.1/src/core/ipv4/inet_chksum.o
 .reginfo       0x00000000       0x18 build/default/debug/lwip-1.4.1/src/core/ipv4/icmp.o
 .reginfo       0x00000000       0x18 build/default/debug/lwip-1.4.1/src/core/ipv4/inet.o
 .reginfo       0x00000000       0x18 build/default/debug/lwip-1.4.1/src/core/ipv4/ip_frag.o
 .reginfo       0x00000000       0x18 build/default/debug/lwip-1.4.1/src/core/ipv4/ip.o
 .reginfo       0x00000000       0x18 build/default/debug/lwip-1.4.1/src/core/ipv4/igmp.o
 .reginfo       0x00000000       0x18 build/default/debug/lwip-1.4.1/src/core/snmp/asn1_enc.o
 .reginfo       0x00000000       0x18 build/default/debug/lwip-1.4.1/src/core/snmp/msg_out.o
 .reginfo       0x00000000       0x18 build/default/debug/lwip-1.4.1/src/core/snmp/mib2.o
 .reginfo       0x00000000       0x18 build/default/debug/lwip-1.4.1/src/core/snmp/asn1_dec.o
 .reginfo       0x00000000       0x18 build/default/debug/lwip-1.4.1/src/core/snmp/msg_in.o
 .reginfo       0x00000000       0x18 build/default/debug/lwip-1.4.1/src/core/snmp/mib_structs.o
 .reginfo       0x00000000       0x18 build/default/debug/lwip-1.4.1/src/core/timers.o
 .discard       0x00000000       0x74 build/default/debug/lwip-1.4.1/src/core/timers.o
 .reginfo       0x00000000       0x18 build/default/debug/lwip-1.4.1/src/core/memp.o
 .discard       0x00000000       0x74 build/default/debug/lwip-1.4.1/src/core/memp.o
 .reginfo       0x00000000       0x18 build/default/debug/lwip-1.4.1/src/core/netif.o
 .reginfo       0x00000000       0x18 build/default/debug/lwip-1.4.1/src/core/pbuf.o
 .discard       0x00000000       0x74 build/default/debug/lwip-1.4.1/src/core/pbuf.o
 .reginfo       0x00000000       0x18 build/default/debug/lwip-1.4.1/src/core/mem.o
 .discard       0x00000000       0x74 build/default/debug/lwip-1.4.1/src/core/mem.o
 .reginfo       0x00000000       0x18 build/default/debug/lwip-1.4.1/src/core/dhcp.o
 .reginfo       0x00000000       0x18 build/default/debug/lwip-1.4.1/src/core/tcp_out.o
 .reginfo       0x00000000       0x18 build/default/debug/lwip-1.4.1/src/core/stats.o
 .reginfo       0x00000000       0x18 build/default/debug/lwip-1.4.1/src/core/tcp_in.o
 .reginfo       0x00000000       0x18 build/default/debug/lwip-1.4.1/src/core/def.o
 .reginfo       0x00000000       0x18 build/default/debug/lwip-1.4.1/src/core/raw.o
 .reginfo       0x00000000       0x18 build/default/debug/lwip-1.4.1/src/core/dns.o
 .reginfo       0x00000000       0x18 build/default/debug/lwip-1.4.1/src/core/udp.o
 .reginfo       0x00000000       0x18 build/default/debug/lwip-1.4.1/src/core/init.o
 .discard       0x00000000       0x74 build/default/debug/lwip-1.4.1/src/core/init.o
 .reginfo       0x00000000       0x18 build/default/debug/lwip-1.4.1/src/core/sys.o
 .discard       0x00000000       0x74 build/default/debug/lwip-1.4.1/src/core/sys.o
 .reginfo       0x00000000       0x18 build/default/debug/lwip-1.4.1/src/core/tcp.o
 .reginfo       0x00000000       0x18 build/default/debug/lwip-1.4.1/src/netif/ppp/ppp_oe.o
 .reginfo       0x00000000       0x18 build/default/debug/lwip-1.4.1/src/netif/ppp/chap.o
 .reginfo       0x00000000       0x18 build/default/debug/lwip-1.4.1/src/netif/ppp/vj.o
 .reginfo       0x00000000       0x18 build/default/debug/lwip-1.4.1/src/netif/ppp/ipcp.o
 .reginfo       0x00000000       0x18 build/default/debug/lwip-1.4.1/src/netif/ppp/fsm.o
 .reginfo       0x00000000       0x18 build/default/debug/lwip-1.4.1/src/netif/ppp/md5.o
 .reginfo       0x00000000       0x18 build/default/debug/lwip-1.4.1/src/netif/ppp/magic.o
 .reginfo       0x00000000       0x18 build/default/debug/lwip-1.4.1/src/netif/ppp/auth.o
 .reginfo       0x00000000       0x18 build/default/debug/lwip-1.4.1/src/netif/ppp/chpms.o
 .reginfo       0x00000000       0x18 build/default/debug/lwip-1.4.1/src/netif/ppp/pap.o
 .reginfo       0x00000000       0x18 build/default/debug/lwip-1.4.1/src/netif/ppp/randm.o
 .reginfo       0x00000000       0x18 build/default/debug/lwip-1.4.1/src/netif/ppp/lcp.o
 .reginfo       0x00000000       0x18 build/default/debug/lwip-1.4.1/src/netif/ppp/ppp.o
 .reginfo       0x00000000       0x18 build/default/debug/lwip-1.4.1/src/netif/etharp.o
 .reginfo       0x00000000       0x18 build/default/debug/lwip-1.4.1/src/netif/ethernetif.o
 .reginfo       0x00000000       0x18 build/default/debug/lwip-1.4.1/src/netif/slipif.o
 .reginfo       0x00000000       0x18 build/default/debug/src/main.o
 .discard       0x00000000       0x74 build/default/debug/src/main.o
 .reginfo       0x00000000       0x18 build/default/debug/src/ip_lwip.o
 .discard       0x00000000       0x74 build/default/debug/src/ip_lwip.o
 .reginfo       0x00000000       0x18 build/default/debug/src/echo.o
 .discard       0x00000000       0x74 build/default/debug/src/echo.o
 .reginfo       0x00000000       0x18 /opt/microchip/xc32/v1.22/bin/../lib/gcc/pic32mx/4.5.2/../../../../pic32mx/lib/./proc/32MX795F512L/default_isr_vectors.o
 .discard       0x00000000      0x100 /opt/microchip/xc32/v1.22/bin/../lib/gcc/pic32mx/4.5.2/../../../../pic32mx/lib/./proc/32MX795F512L/default_isr_vectors.o
 .reginfo       0x00000000       0x18 /opt/microchip/xc32/v1.22/bin/../lib/gcc/pic32mx/4.5.2/../../../../pic32mx/lib/./proc/32MX795F512L/processor.o
 .reginfo       0x00000000       0x18 /opt/microchip/xc32/v1.22/bin/../lib/gcc/pic32mx/4.5.2/../../../../pic32mx/lib/libmchp_peripheral.a(read_core_timer_lib.o)
 .pdr           0x00000000       0x20 /opt/microchip/xc32/v1.22/bin/../lib/gcc/pic32mx/4.5.2/../../../../pic32mx/lib/libmchp_peripheral.a(read_core_timer_lib.o)
 .reginfo       0x00000000       0x18 /opt/microchip/xc32/v1.22/bin/../lib/gcc/pic32mx/4.5.2/../../../../pic32mx/lib/libmchp_peripheral_32MX795F512L.a(eth_ack_packet_lib.o)
 .pdr           0x00000000       0xc0 /opt/microchip/xc32/v1.22/bin/../lib/gcc/pic32mx/4.5.2/../../../../pic32mx/lib/libmchp_peripheral_32MX795F512L.a(eth_ack_packet_lib.o)
 .reginfo       0x00000000       0x18 /opt/microchip/xc32/v1.22/bin/../lib/gcc/pic32mx/4.5.2/../../../../pic32mx/lib/libmchp_peripheral_32MX795F512L.a(eth_descriptors_add_lib.o)
 .pdr           0x00000000       0x40 /opt/microchip/xc32/v1.22/bin/../lib/gcc/pic32mx/4.5.2/../../../../pic32mx/lib/libmchp_peripheral_32MX795F512L.a(eth_descriptors_add_lib.o)
 .reginfo       0x00000000       0x18 /opt/microchip/xc32/v1.22/bin/../lib/gcc/pic32mx/4.5.2/../../../../pic32mx/lib/libmchp_peripheral_32MX795F512L.a(eth_init_lib.o)
 .pdr           0x00000000       0x20 /opt/microchip/xc32/v1.22/bin/../lib/gcc/pic32mx/4.5.2/../../../../pic32mx/lib/libmchp_peripheral_32MX795F512L.a(eth_init_lib.o)
 .reginfo       0x00000000       0x18 /opt/microchip/xc32/v1.22/bin/../lib/gcc/pic32mx/4.5.2/../../../../pic32mx/lib/libmchp_peripheral_32MX795F512L.a(eth_mac_open_lib.o)
 .pdr           0x00000000       0x20 /opt/microchip/xc32/v1.22/bin/../lib/gcc/pic32mx/4.5.2/../../../../pic32mx/lib/libmchp_peripheral_32MX795F512L.a(eth_mac_open_lib.o)
 .reginfo       0x00000000       0x18 /opt/microchip/xc32/v1.22/bin/../lib/gcc/pic32mx/4.5.2/../../../../pic32mx/lib/libmchp_peripheral_32MX795F512L.a(eth_mac_set_address_max_lib.o)
 .pdr           0x00000000       0x60 /opt/microchip/xc32/v1.22/bin/../lib/gcc/pic32mx/4.5.2/../../../../pic32mx/lib/libmchp_peripheral_32MX795F512L.a(eth_mac_set_address_max_lib.o)
 .reginfo       0x00000000       0x18 /opt/microchip/xc32/v1.22/bin/../lib/gcc/pic32mx/4.5.2/../../../../pic32mx/lib/libmchp_peripheral_32MX795F512L.a(eth_rx_buffers_append_lib.o)
 .pdr           0x00000000       0x20 /opt/microchip/xc32/v1.22/bin/../lib/gcc/pic32mx/4.5.2/../../../../pic32mx/lib/libmchp_peripheral_32MX795F512L.a(eth_rx_buffers_append_lib.o)
 .reginfo       0x00000000       0x18 /opt/microchip/xc32/v1.22/bin/../lib/gcc/pic32mx/4.5.2/../../../../pic32mx/lib/libmchp_peripheral_32MX795F512L.a(eth_rx_filters_lib.o)
 .pdr           0x00000000       0xc0 /opt/microchip/xc32/v1.22/bin/../lib/gcc/pic32mx/4.5.2/../../../../pic32mx/lib/libmchp_peripheral_32MX795F512L.a(eth_rx_filters_lib.o)
 .reginfo       0x00000000       0x18 /opt/microchip/xc32/v1.22/bin/../lib/gcc/pic32mx/4.5.2/../../../../pic32mx/lib/libmchp_peripheral_32MX795F512L.a(eth_rx_get_packet_lib.o)
 .pdr           0x00000000       0x40 /opt/microchip/xc32/v1.22/bin/../lib/gcc/pic32mx/4.5.2/../../../../pic32mx/lib/libmchp_peripheral_32MX795F512L.a(eth_rx_get_packet_lib.o)
 .reginfo       0x00000000       0x18 /opt/microchip/xc32/v1.22/bin/../lib/gcc/pic32mx/4.5.2/../../../../pic32mx/lib/libmchp_peripheral_32MX795F512L.a(eth_rx_set_buffer_size_lib.o)
 .pdr           0x00000000       0x20 /opt/microchip/xc32/v1.22/bin/../lib/gcc/pic32mx/4.5.2/../../../../pic32mx/lib/libmchp_peripheral_32MX795F512L.a(eth_rx_set_buffer_size_lib.o)
 .reginfo       0x00000000       0x18 /opt/microchip/xc32/v1.22/bin/../lib/gcc/pic32mx/4.5.2/../../../../pic32mx/lib/libmchp_peripheral_32MX795F512L.a(eth_tx_packet_lib.o)
 .pdr           0x00000000       0xc0 /opt/microchip/xc32/v1.22/bin/../lib/gcc/pic32mx/4.5.2/../../../../pic32mx/lib/libmchp_peripheral_32MX795F512L.a(eth_tx_packet_lib.o)
 .reginfo       0x00000000       0x18 /opt/microchip/xc32/v1.22/bin/../lib/gcc/pic32mx/4.5.2/../../../../pic32mx/lib/libmchp_peripheral_32MX795F512L.a(_eth_append_busy_list_lib.o)
 .pdr           0x00000000       0x20 /opt/microchip/xc32/v1.22/bin/../lib/gcc/pic32mx/4.5.2/../../../../pic32mx/lib/libmchp_peripheral_32MX795F512L.a(_eth_append_busy_list_lib.o)
 .reginfo       0x00000000       0x18 /opt/microchip/xc32/v1.22/bin/../lib/gcc/pic32mx/4.5.2/../../../../pic32mx/lib/libmchp_peripheral_32MX795F512L.a(eth_miim_access.o)
 .pdr           0x00000000       0xc0 /opt/microchip/xc32/v1.22/bin/../lib/gcc/pic32mx/4.5.2/../../../../pic32mx/lib/libmchp_peripheral_32MX795F512L.a(eth_miim_access.o)
 .reginfo       0x00000000       0x18 /opt/microchip/xc32/v1.22/bin/../lib/gcc/pic32mx/4.5.2/../../../../pic32mx/lib/libmchp_peripheral_32MX795F512L.a(int_tbl_lib.o)
 .pdr           0x00000000      0x120 /opt/microchip/xc32/v1.22/bin/../lib/gcc/pic32mx/4.5.2/../../../../pic32mx/lib/libmchp_peripheral_32MX795F512L.a(int_tbl_lib.o)
 .reginfo       0x00000000       0x18 /opt/microchip/xc32/v1.22/bin/../lib/gcc/pic32mx/4.5.2/../../../../pic32mx/lib/libmchp_peripheral_32MX795F512L.a(port_set_pins_digital_in_lib.o)
 .pdr           0x00000000       0x20 /opt/microchip/xc32/v1.22/bin/../lib/gcc/pic32mx/4.5.2/../../../../pic32mx/lib/libmchp_peripheral_32MX795F512L.a(port_set_pins_digital_in_lib.o)
 .reginfo       0x00000000       0x18 /opt/microchip/xc32/v1.22/bin/../lib/gcc/pic32mx/4.5.2/../../../../pic32mx/lib/libmchp_peripheral_32MX795F512L.a(port_set_pins_digital_out_lib.o)
 .pdr           0x00000000       0x20 /opt/microchip/xc32/v1.22/bin/../lib/gcc/pic32mx/4.5.2/../../../../pic32mx/lib/libmchp_peripheral_32MX795F512L.a(port_set_pins_digital_out_lib.o)
 .reginfo       0x00000000       0x18 /opt/microchip/xc32/v1.22/bin/../lib/gcc/pic32mx/4.5.2/../../../../pic32mx/lib/libmchp_peripheral_32MX795F512L.a(_ports_tbl_libp.o)
 .pdr           0x00000000        0x0 /opt/microchip/xc32/v1.22/bin/../lib/gcc/pic32mx/4.5.2/../../../../pic32mx/lib/libmchp_peripheral_32MX795F512L.a(_ports_tbl_libp.o)
 .reginfo       0x00000000       0x18 /opt/microchip/xc32/v1.22/bin/../lib/gcc/pic32mx/4.5.2/../../../../pic32mx/lib/libpic32.a(memcmp.o)
 .reginfo       0x00000000       0x18 /opt/microchip/xc32/v1.22/bin/../lib/gcc/pic32mx/4.5.2/../../../../pic32mx/lib/libpic32.a(memcpy.o)
 .reginfo       0x00000000       0x18 /opt/microchip/xc32/v1.22/bin/../lib/gcc/pic32mx/4.5.2/../../../../pic32mx/lib/libpic32.a(memset.o)
 .reginfo       0x00000000       0x18 /opt/microchip/xc32/v1.22/bin/../lib/gcc/pic32mx/4.5.2/../../../../pic32mx/lib/libpic32.a(strlen.o)
 .reginfo       0x00000000       0x18 /opt/microchip/xc32/v1.22/bin/../lib/gcc/pic32mx/4.5.2/../../../../pic32mx/lib/libpic32.a(default-bootstrap-exception-handler.o)
 .reginfo       0x00000000       0x18 /opt/microchip/xc32/v1.22/bin/../lib/gcc/pic32mx/4.5.2/../../../../pic32mx/lib/libpic32.a(default-on-reset.o)
 .reginfo       0x00000000       0x18 /opt/microchip/xc32/v1.22/bin/../lib/gcc/pic32mx/4.5.2/../../../../pic32mx/lib/libpic32.a(default-on-bootstrap.o)
 .reginfo       0x00000000       0x18 /opt/microchip/xc32/v1.22/bin/../lib/gcc/pic32mx/4.5.2/../../../../pic32mx/lib/libpic32.a(default-nmi-handler.o)
 .reginfo       0x00000000       0x18 /opt/microchip/xc32/v1.22/bin/../lib/gcc/pic32mx/4.5.2/../../../../pic32mx/lib/libpic32.a(general-exception.o)
 .reginfo       0x00000000       0x18 /opt/microchip/xc32/v1.22/bin/../lib/gcc/pic32mx/4.5.2/../../../../pic32mx/lib/libpic32.a(vector0.o)
 .reginfo       0x00000000       0x18 /opt/microchip/xc32/v1.22/bin/../lib/gcc/pic32mx/4.5.2/../../../../pic32mx/lib/libpic32.a(vector2.o)
 .reginfo       0x00000000       0x18 /opt/microchip/xc32/v1.22/bin/../lib/gcc/pic32mx/4.5.2/../../../../pic32mx/lib/libpic32.a(vector3.o)
 .reginfo       0x00000000       0x18 /opt/microchip/xc32/v1.22/bin/../lib/gcc/pic32mx/4.5.2/../../../../pic32mx/lib/libpic32.a(vector5.o)
 .reginfo       0x00000000       0x18 /opt/microchip/xc32/v1.22/bin/../lib/gcc/pic32mx/4.5.2/../../../../pic32mx/lib/libpic32.a(vector6.o)
 .reginfo       0x00000000       0x18 /opt/microchip/xc32/v1.22/bin/../lib/gcc/pic32mx/4.5.2/../../../../pic32mx/lib/libpic32.a(vector7.o)
 .reginfo       0x00000000       0x18 /opt/microchip/xc32/v1.22/bin/../lib/gcc/pic32mx/4.5.2/../../../../pic32mx/lib/libpic32.a(vector8.o)
 .reginfo       0x00000000       0x18 /opt/microchip/xc32/v1.22/bin/../lib/gcc/pic32mx/4.5.2/../../../../pic32mx/lib/libpic32.a(vector9.o)
 .reginfo       0x00000000       0x18 /opt/microchip/xc32/v1.22/bin/../lib/gcc/pic32mx/4.5.2/../../../../pic32mx/lib/libpic32.a(vector10.o)
 .reginfo       0x00000000       0x18 /opt/microchip/xc32/v1.22/bin/../lib/gcc/pic32mx/4.5.2/../../../../pic32mx/lib/libpic32.a(vector11.o)
 .reginfo       0x00000000       0x18 /opt/microchip/xc32/v1.22/bin/../lib/gcc/pic32mx/4.5.2/../../../../pic32mx/lib/libpic32.a(vector12.o)
 .reginfo       0x00000000       0x18 /opt/microchip/xc32/v1.22/bin/../lib/gcc/pic32mx/4.5.2/../../../../pic32mx/lib/libpic32.a(vector13.o)
 .reginfo       0x00000000       0x18 /opt/microchip/xc32/v1.22/bin/../lib/gcc/pic32mx/4.5.2/../../../../pic32mx/lib/libpic32.a(vector14.o)
 .reginfo       0x00000000       0x18 /opt/microchip/xc32/v1.22/bin/../lib/gcc/pic32mx/4.5.2/../../../../pic32mx/lib/libpic32.a(vector16.o)
 .reginfo       0x00000000       0x18 /opt/microchip/xc32/v1.22/bin/../lib/gcc/pic32mx/4.5.2/../../../../pic32mx/lib/libpic32.a(vector17.o)
 .reginfo       0x00000000       0x18 /opt/microchip/xc32/v1.22/bin/../lib/gcc/pic32mx/4.5.2/../../../../pic32mx/lib/libpic32.a(vector18.o)
 .reginfo       0x00000000       0x18 /opt/microchip/xc32/v1.22/bin/../lib/gcc/pic32mx/4.5.2/../../../../pic32mx/lib/libpic32.a(vector19.o)
 .reginfo       0x00000000       0x18 /opt/microchip/xc32/v1.22/bin/../lib/gcc/pic32mx/4.5.2/../../../../pic32mx/lib/libpic32.a(vector20.o)
 .reginfo       0x00000000       0x18 /opt/microchip/xc32/v1.22/bin/../lib/gcc/pic32mx/4.5.2/../../../../pic32mx/lib/libpic32.a(vector21.o)
 .reginfo       0x00000000       0x18 /opt/microchip/xc32/v1.22/bin/../lib/gcc/pic32mx/4.5.2/../../../../pic32mx/lib/libpic32.a(vector22.o)
 .reginfo       0x00000000       0x18 /opt/microchip/xc32/v1.22/bin/../lib/gcc/pic32mx/4.5.2/../../../../pic32mx/lib/libpic32.a(vector23.o)
 .reginfo       0x00000000       0x18 /opt/microchip/xc32/v1.22/bin/../lib/gcc/pic32mx/4.5.2/../../../../pic32mx/lib/libpic32.a(vector24.o)
 .reginfo       0x00000000       0x18 /opt/microchip/xc32/v1.22/bin/../lib/gcc/pic32mx/4.5.2/../../../../pic32mx/lib/libpic32.a(vector25.o)
 .reginfo       0x00000000       0x18 /opt/microchip/xc32/v1.22/bin/../lib/gcc/pic32mx/4.5.2/../../../../pic32mx/lib/libpic32.a(vector26.o)
 .reginfo       0x00000000       0x18 /opt/microchip/xc32/v1.22/bin/../lib/gcc/pic32mx/4.5.2/../../../../pic32mx/lib/libpic32.a(vector27.o)
 .reginfo       0x00000000       0x18 /opt/microchip/xc32/v1.22/bin/../lib/gcc/pic32mx/4.5.2/../../../../pic32mx/lib/libpic32.a(vector28.o)
 .reginfo       0x00000000       0x18 /opt/microchip/xc32/v1.22/bin/../lib/gcc/pic32mx/4.5.2/../../../../pic32mx/lib/libpic32.a(vector29.o)
 .reginfo       0x00000000       0x18 /opt/microchip/xc32/v1.22/bin/../lib/gcc/pic32mx/4.5.2/../../../../pic32mx/lib/libpic32.a(vector30.o)
 .reginfo       0x00000000       0x18 /opt/microchip/xc32/v1.22/bin/../lib/gcc/pic32mx/4.5.2/../../../../pic32mx/lib/libpic32.a(vector31.o)
 .reginfo       0x00000000       0x18 /opt/microchip/xc32/v1.22/bin/../lib/gcc/pic32mx/4.5.2/../../../../pic32mx/lib/libpic32.a(vector32.o)
 .reginfo       0x00000000       0x18 /opt/microchip/xc32/v1.22/bin/../lib/gcc/pic32mx/4.5.2/../../../../pic32mx/lib/libpic32.a(vector33.o)
 .reginfo       0x00000000       0x18 /opt/microchip/xc32/v1.22/bin/../lib/gcc/pic32mx/4.5.2/../../../../pic32mx/lib/libpic32.a(vector34.o)
 .reginfo       0x00000000       0x18 /opt/microchip/xc32/v1.22/bin/../lib/gcc/pic32mx/4.5.2/../../../../pic32mx/lib/libpic32.a(vector35.o)
 .reginfo       0x00000000       0x18 /opt/microchip/xc32/v1.22/bin/../lib/gcc/pic32mx/4.5.2/../../../../pic32mx/lib/libpic32.a(vector36.o)
 .reginfo       0x00000000       0x18 /opt/microchip/xc32/v1.22/bin/../lib/gcc/pic32mx/4.5.2/../../../../pic32mx/lib/libpic32.a(vector37.o)
 .reginfo       0x00000000       0x18 /opt/microchip/xc32/v1.22/bin/../lib/gcc/pic32mx/4.5.2/../../../../pic32mx/lib/libpic32.a(vector38.o)
 .reginfo       0x00000000       0x18 /opt/microchip/xc32/v1.22/bin/../lib/gcc/pic32mx/4.5.2/../../../../pic32mx/lib/libpic32.a(vector39.o)
 .reginfo       0x00000000       0x18 /opt/microchip/xc32/v1.22/bin/../lib/gcc/pic32mx/4.5.2/../../../../pic32mx/lib/libpic32.a(vector40.o)
 .reginfo       0x00000000       0x18 /opt/microchip/xc32/v1.22/bin/../lib/gcc/pic32mx/4.5.2/../../../../pic32mx/lib/libpic32.a(vector41.o)
 .reginfo       0x00000000       0x18 /opt/microchip/xc32/v1.22/bin/../lib/gcc/pic32mx/4.5.2/../../../../pic32mx/lib/libpic32.a(vector42.o)
 .reginfo       0x00000000       0x18 /opt/microchip/xc32/v1.22/bin/../lib/gcc/pic32mx/4.5.2/../../../../pic32mx/lib/libpic32.a(vector43.o)
 .reginfo       0x00000000       0x18 /opt/microchip/xc32/v1.22/bin/../lib/gcc/pic32mx/4.5.2/../../../../pic32mx/lib/libpic32.a(vector44.o)
 .reginfo       0x00000000       0x18 /opt/microchip/xc32/v1.22/bin/../lib/gcc/pic32mx/4.5.2/../../../../pic32mx/lib/libpic32.a(vector45.o)
 .reginfo       0x00000000       0x18 /opt/microchip/xc32/v1.22/bin/../lib/gcc/pic32mx/4.5.2/../../../../pic32mx/lib/libpic32.a(vector46.o)
 .reginfo       0x00000000       0x18 /opt/microchip/xc32/v1.22/bin/../lib/gcc/pic32mx/4.5.2/../../../../pic32mx/lib/libpic32.a(vector47.o)
 .reginfo       0x00000000       0x18 /opt/microchip/xc32/v1.22/bin/../lib/gcc/pic32mx/4.5.2/../../../../pic32mx/lib/libpic32.a(vector49.o)
 .reginfo       0x00000000       0x18 /opt/microchip/xc32/v1.22/bin/../lib/gcc/pic32mx/4.5.2/../../../../pic32mx/lib/libpic32.a(vector50.o)
 .reginfo       0x00000000       0x18 /opt/microchip/xc32/v1.22/bin/../lib/gcc/pic32mx/4.5.2/../../../../pic32mx/lib/libpic32.a(vector51.o)
 .reginfo       0x00000000       0x18 /opt/microchip/xc32/v1.22/bin/../lib/gcc/pic32mx/4.5.2/../../../../pic32mx/lib/libpic32.a(vector52.o)
 .reginfo       0x00000000       0x18 /opt/microchip/xc32/v1.22/bin/../lib/gcc/pic32mx/4.5.2/../../../../pic32mx/lib/libpic32.a(vector53.o)
 .reginfo       0x00000000       0x18 /opt/microchip/xc32/v1.22/bin/../lib/gcc/pic32mx/4.5.2/../../../../pic32mx/lib/libpic32.a(vector54.o)
 .reginfo       0x00000000       0x18 /opt/microchip/xc32/v1.22/bin/../lib/gcc/pic32mx/4.5.2/../../../../pic32mx/lib/libpic32.a(vector55.o)
 .reginfo       0x00000000       0x18 /opt/microchip/xc32/v1.22/bin/../lib/gcc/pic32mx/4.5.2/../../../../pic32mx/lib/libpic32.a(vector56.o)
 .reginfo       0x00000000       0x18 /opt/microchip/xc32/v1.22/bin/../lib/gcc/pic32mx/4.5.2/../../../../pic32mx/lib/libpic32.a(vector57.o)
 .reginfo       0x00000000       0x18 /opt/microchip/xc32/v1.22/bin/../lib/gcc/pic32mx/4.5.2/../../../../pic32mx/lib/libpic32.a(vector58.o)
 .reginfo       0x00000000       0x18 /opt/microchip/xc32/v1.22/bin/../lib/gcc/pic32mx/4.5.2/../../../../pic32mx/lib/libpic32.a(vector59.o)
 .reginfo       0x00000000       0x18 /opt/microchip/xc32/v1.22/bin/../lib/gcc/pic32mx/4.5.2/../../../../pic32mx/lib/libpic32.a(vector60.o)
 .reginfo       0x00000000       0x18 /opt/microchip/xc32/v1.22/bin/../lib/gcc/pic32mx/4.5.2/../../../../pic32mx/lib/libpic32.a(vector61.o)
 .reginfo       0x00000000       0x18 /opt/microchip/xc32/v1.22/bin/../lib/gcc/pic32mx/4.5.2/../../../../pic32mx/lib/libpic32.a(vector62.o)
 .reginfo       0x00000000       0x18 /opt/microchip/xc32/v1.22/bin/../lib/gcc/pic32mx/4.5.2/../../../../pic32mx/lib/libpic32.a(vector63.o)
 .reginfo       0x00000000       0x18 /opt/microchip/xc32/v1.22/bin/../lib/gcc/pic32mx/4.5.2/../../../../pic32mx/lib/libpic32.a(default-general-exception-handler.o)
 .reginfo       0x00000000       0x18 /opt/microchip/xc32/v1.22/bin/../lib/gcc/pic32mx/4.5.2/../../../../pic32mx/lib/libpic32.a(defaultinterrupt.o)
 .reginfo       0x00000000       0x18 /opt/microchip/xc32/v1.22/bin/../lib/gcc/pic32mx/4.5.2/../../../../pic32mx/lib/libdebug.a(db_utils.o)
 .reginfo       0x00000000       0x18 /opt/microchip/xc32/v1.22/bin/../lib/gcc/pic32mx/4.5.2/../../../../pic32mx/lib/libpic32.a(xc32_uart.o)
 .reginfo       0x00000000       0x18 /opt/microchip/xc32/v1.22/bin/../lib/gcc/pic32mx/4.5.2/../../../../pic32mx/lib/libc.a(_iob.o)
 .reginfo       0x00000000       0x18 /opt/microchip/xc32/v1.22/bin/../lib/gcc/pic32mx/4.5.2/../../../../pic32mx/lib/libc.a(calloc.o)
 .reginfo       0x00000000       0x18 /opt/microchip/xc32/v1.22/bin/../lib/gcc/pic32mx/4.5.2/../../../../pic32mx/lib/libc.a(malloc.o)
 .reginfo       0x00000000       0x18 /opt/microchip/xc32/v1.22/bin/../lib/gcc/pic32mx/4.5.2/../../../../pic32mx/lib/libc.a(puts.o)
 .reginfo       0x00000000       0x18 /opt/microchip/xc32/v1.22/bin/../lib/gcc/pic32mx/4.5.2/../../../../pic32mx/lib/libc.a(rand.o)
 .reginfo       0x00000000       0x18 /opt/microchip/xc32/v1.22/bin/../lib/gcc/pic32mx/4.5.2/../../../../pic32mx/lib/libc.a(setbuf.o)
 .reginfo       0x00000000       0x18 /opt/microchip/xc32/v1.22/bin/../lib/gcc/pic32mx/4.5.2/../../../../pic32mx/lib/libc.a(strncmp.o)
 .reginfo       0x00000000       0x18 /opt/microchip/xc32/v1.22/bin/../lib/gcc/pic32mx/4.5.2/../../../../pic32mx/lib/libc.a(printf_cdnopsuxX.eo)
 .reginfo       0x00000000       0x18 /opt/microchip/xc32/v1.22/bin/../lib/gcc/pic32mx/4.5.2/../../../../pic32mx/lib/libc.a(printf.o)
 .reginfo       0x00000000       0x18 /opt/microchip/xc32/v1.22/bin/../lib/gcc/pic32mx/4.5.2/../../../../pic32mx/lib/libc.a(_fputc_simple.o)
 .reginfo       0x00000000       0x18 /opt/microchip/xc32/v1.22/bin/../lib/gcc/pic32mx/4.5.2/../../../../pic32mx/lib/libc.a(buf.o)
 .reginfo       0x00000000       0x18 /opt/microchip/xc32/v1.22/bin/../lib/gcc/pic32mx/4.5.2/../../../../pic32mx/lib/libc.a(errno.o)
 .reginfo       0x00000000       0x18 /opt/microchip/xc32/v1.22/bin/../lib/gcc/pic32mx/4.5.2/../../../../pic32mx/lib/libc.a(doprnt_cdnopsuxX.eo)
 .reginfo       0x00000000       0x18 /opt/microchip/xc32/v1.22/bin/../lib/gcc/pic32mx/4.5.2/../../../../pic32mx/lib/libc.a(doprnt.o)
 .reginfo       0x00000000       0x18 /opt/microchip/xc32/v1.22/bin/../lib/gcc/pic32mx/4.5.2/../../../../pic32mx/lib/libc.a(_flsbuf_simple.o)
 .reginfo       0x00000000       0x18 /opt/microchip/xc32/v1.22/bin/../lib/gcc/pic32mx/4.5.2/../../../../pic32mx/lib/libc.a(ctype.o)
 .reginfo       0x00000000       0x18 /opt/microchip/xc32/v1.22/bin/../lib/gcc/pic32mx/4.5.2/../../../../pic32mx/lib/libc.a(powersf.o)
 .reginfo       0x00000000       0x18 /opt/microchip/xc32/v1.22/bin/../lib/gcc/pic32mx/4.5.2/../../../../pic32mx/lib/libpic32.a(sbrk.o)
 .reginfo       0x00000000       0x18 /opt/microchip/xc32/v1.22/bin/../lib/gcc/pic32mx/4.5.2/../../../../pic32mx/lib/libpic32.a(write.o)
 .reginfo       0x00000000       0x18 /opt/microchip/xc32/v1.22/bin/../lib/gcc/pic32mx/4.5.2/../../../../pic32mx/lib/libm.a(fpmod32.o)
 .reginfo       0x00000000       0x18 /opt/microchip/xc32/v1.22/bin/../lib/gcc/pic32mx/4.5.2/../../../../pic32mx/lib/libm.a(fp32.o)
 .reginfo       0x00000000       0x18 /opt/microchip/xc32/v1.22/bin/../lib/gcc/pic32mx/4.5.2/../../../../pic32mx/lib/libe.a(_floatdisf.o)
 .reginfo       0x00000000       0x18 /opt/microchip/xc32/v1.22/bin/../lib/gcc/pic32mx/4.5.2/libgcc.a(_floatundisf.o)
 .reginfo       0x00000000       0x18 /opt/microchip/xc32/v1.22/bin/../lib/gcc/pic32mx/4.5.2/libgcc.a(_udivdi3.o)
 .reginfo       0x00000000       0x18 /opt/microchip/xc32/v1.22/bin/../lib/gcc/pic32mx/4.5.2/libgcc.a(_umoddi3.o)
 .reginfo       0x00000000       0x18 /opt/microchip/xc32/v1.22/bin/../lib/gcc/pic32mx/4.5.2/libgcc.a(floatunsisf.o)

Memory Configuration

Name             Origin             Length             Attributes
kseg0_program_mem 0x9d000000         0x00080000         xr
kseg0_boot_mem   0x9fc00490         0x00000970
exception_mem    0x9fc01000         0x00001000
kseg1_boot_mem   0xbfc00000         0x00000490
debug_exec_mem   0xbfc02000         0x00000ff0
config3          0xbfc02ff0         0x00000004
config2          0xbfc02ff4         0x00000004
config1          0xbfc02ff8         0x00000004
config0          0xbfc02ffc         0x00000004
kseg1_data_mem   0xa0000000         0x00020000         w !x
sfrs             0xbf800000         0x00100000
configsfrs       0xbfc02ff0         0x00000010
*default*        0x00000000         0xffffffff

Linker script and memory map

LOAD /opt/microchip/xc32/v1.22/bin/../lib/gcc/pic32mx/4.5.2/../../../../pic32mx/lib/crt0.o
                0x00000001                _DEBUGGER = 0x1
LOAD build/default/debug/contrib/ports/microchip/netif/ETHPIC32ExtPhyDP83848.o
LOAD build/default/debug/contrib/ports/microchip/netif/xadapter.o
LOAD build/default/debug/contrib/ports/microchip/netif/Microchip_eth.o
LOAD build/default/debug/contrib/ports/microchip/netif/ETHPIC32ExtPhy.o
LOAD build/default/debug/contrib/ports/microchip/sys_arch_raw.o
LOAD build/default/debug/contrib/ports/microchip/sys_arch.o
LOAD build/default/debug/contrib/ports/microchip/ethernetif.o
LOAD build/default/debug/freertos/heap/heap_3.o
LOAD build/default/debug/freertos/timers.o
LOAD build/default/debug/freertos/port.o
LOAD build/default/debug/freertos/port_asm.o
LOAD build/default/debug/freertos/list.o
LOAD build/default/debug/freertos/tasks.o
LOAD build/default/debug/freertos/croutine.o
LOAD build/default/debug/freertos/queue.o
LOAD build/default/debug/lwip-1.4.1/src/api/api_msg.o
LOAD build/default/debug/lwip-1.4.1/src/api/netbuf.o
LOAD build/default/debug/lwip-1.4.1/src/api/netdb.o
LOAD build/default/debug/lwip-1.4.1/src/api/tcpip.o
LOAD build/default/debug/lwip-1.4.1/src/api/sockets.o
LOAD build/default/debug/lwip-1.4.1/src/api/netifapi.o
LOAD build/default/debug/lwip-1.4.1/src/api/err.o
LOAD build/default/debug/lwip-1.4.1/src/api/api_lib.o
LOAD build/default/debug/lwip-1.4.1/src/core/ipv4/autoip.o
LOAD build/default/debug/lwip-1.4.1/src/core/ipv4/ip_addr.o
LOAD build/default/debug/lwip-1.4.1/src/core/ipv4/inet_chksum.o
LOAD build/default/debug/lwip-1.4.1/src/core/ipv4/icmp.o
LOAD build/default/debug/lwip-1.4.1/src/core/ipv4/inet.o
LOAD build/default/debug/lwip-1.4.1/src/core/ipv4/ip_frag.o
LOAD build/default/debug/lwip-1.4.1/src/core/ipv4/ip.o
LOAD build/default/debug/lwip-1.4.1/src/core/ipv4/igmp.o
LOAD build/default/debug/lwip-1.4.1/src/core/snmp/asn1_enc.o
LOAD build/default/debug/lwip-1.4.1/src/core/snmp/msg_out.o
LOAD build/default/debug/lwip-1.4.1/src/core/snmp/mib2.o
LOAD build/default/debug/lwip-1.4.1/src/core/snmp/asn1_dec.o
LOAD build/default/debug/lwip-1.4.1/src/core/snmp/msg_in.o
LOAD build/default/debug/lwip-1.4.1/src/core/snmp/mib_structs.o
LOAD build/default/debug/lwip-1.4.1/src/core/timers.o
LOAD build/default/debug/lwip-1.4.1/src/core/memp.o
LOAD build/default/debug/lwip-1.4.1/src/core/netif.o
LOAD build/default/debug/lwip-1.4.1/src/core/pbuf.o
LOAD build/default/debug/lwip-1.4.1/src/core/mem.o
LOAD build/default/debug/lwip-1.4.1/src/core/dhcp.o
LOAD build/default/debug/lwip-1.4.1/src/core/tcp_out.o
LOAD build/default/debug/lwip-1.4.1/src/core/stats.o
LOAD build/default/debug/lwip-1.4.1/src/core/tcp_in.o
LOAD build/default/debug/lwip-1.4.1/src/core/def.o
LOAD build/default/debug/lwip-1.4.1/src/core/raw.o
LOAD build/default/debug/lwip-1.4.1/src/core/dns.o
LOAD build/default/debug/lwip-1.4.1/src/core/udp.o
LOAD build/default/debug/lwip-1.4.1/src/core/init.o
LOAD build/default/debug/lwip-1.4.1/src/core/sys.o
LOAD build/default/debug/lwip-1.4.1/src/core/tcp.o
LOAD build/default/debug/lwip-1.4.1/src/netif/ppp/ppp_oe.o
LOAD build/default/debug/lwip-1.4.1/src/netif/ppp/chap.o
LOAD build/default/debug/lwip-1.4.1/src/netif/ppp/vj.o
LOAD build/default/debug/lwip-1.4.1/src/netif/ppp/ipcp.o
LOAD build/default/debug/lwip-1.4.1/src/netif/ppp/fsm.o
LOAD build/default/debug/lwip-1.4.1/src/netif/ppp/md5.o
LOAD build/default/debug/lwip-1.4.1/src/netif/ppp/magic.o
LOAD build/default/debug/lwip-1.4.1/src/netif/ppp/auth.o
LOAD build/default/debug/lwip-1.4.1/src/netif/ppp/chpms.o
LOAD build/default/debug/lwip-1.4.1/src/netif/ppp/pap.o
LOAD build/default/debug/lwip-1.4.1/src/netif/ppp/randm.o
LOAD build/default/debug/lwip-1.4.1/src/netif/ppp/lcp.o
LOAD build/default/debug/lwip-1.4.1/src/netif/ppp/ppp.o
LOAD build/default/debug/lwip-1.4.1/src/netif/etharp.o
LOAD build/default/debug/lwip-1.4.1/src/netif/ethernetif.o
LOAD build/default/debug/lwip-1.4.1/src/netif/slipif.o
LOAD build/default/debug/src/main.o
LOAD build/default/debug/src/ip_lwip.o
LOAD build/default/debug/src/echo.o
                0x00000001                __MPLAB_BUILD = 0x1
                0x00000001                __ICD2RAM = 0x1
                0x00000001                __MPLAB_DEBUG = 0x1
                0x00000001                __DEBUG = 0x1
                0x00000001                __MPLAB_DEBUGGER_PIC32MXSK = 0x1
                0x00009c40                _min_heap_size = 0x9c40
                0x00000400                _min_stack_size = 0x400
LOAD /opt/microchip/xc32/v1.22/bin/../lib/gcc/pic32mx/4.5.2/../../../../pic32mx/lib/./proc/32MX795F512L/default_isr_vectors.o
                0x00000400                PROVIDE (_min_stack_size, 0x400)
LOAD /opt/microchip/xc32/v1.22/bin/../lib/gcc/pic32mx/4.5.2/../../../../pic32mx/lib/./proc/32MX795F512L/processor.o
START GROUP
LOAD /opt/microchip/xc32/v1.22/bin/../lib/gcc/pic32mx/4.5.2/../../../../pic32mx/lib/libmchp_peripheral.a
END GROUP
START GROUP
LOAD /opt/microchip/xc32/v1.22/bin/../lib/gcc/pic32mx/4.5.2/../../../../pic32mx/lib/libmchp_peripheral_32MX795F512L.a
END GROUP
                0x00000001                PROVIDE (_vector_spacing, 0x1)
                0x9fc01000                _ebase_address = 0x9fc01000
                0xbfc00000                _RESET_ADDR = 0xbfc00000
                0xbfc00380                _BEV_EXCPT_ADDR = 0xbfc00380
                0xbfc00480                _DBG_EXCPT_ADDR = 0xbfc00480
                0xbfc02000                _DBG_CODE_ADDR = 0xbfc02000
                0x00000ff0                _DBG_CODE_SIZE = 0xff0
                0x9fc01180                _GEN_EXCPT_ADDR = (_ebase_address + 0x180)

.config_BFC02FF0
                0xbfc02ff0        0x4
 *(.config_BFC02FF0)
 .config_BFC02FF0
                0xbfc02ff0        0x4 build/default/debug/src/main.o

.config_BFC02FF4
                0xbfc02ff4        0x4
 *(.config_BFC02FF4)
 .config_BFC02FF4
                0xbfc02ff4        0x4 build/default/debug/src/main.o

.config_BFC02FF8
                0xbfc02ff8        0x4
 *(.config_BFC02FF8)
 .config_BFC02FF8
                0xbfc02ff8        0x4 build/default/debug/src/main.o

.config_BFC02FFC
                0xbfc02ffc        0x4
 *(.config_BFC02FFC)
 .config_BFC02FFC
                0xbfc02ffc        0x4 build/default/debug/src/main.o
                0xbfc02000                PROVIDE (_DBG_CODE_ADDR, 0xbfc02000)
                0x00000ff0                PROVIDE (_DBG_CODE_SIZE, 0xff0)

.reset          0xbfc00000      0x1f4
 *(.reset)
 .reset         0xbfc00000       0x10 /opt/microchip/xc32/v1.22/bin/../lib/gcc/pic32mx/4.5.2/../../../../pic32mx/lib/crt0.o
                0xbfc00000                _reset
 *(.reset.startup)
 .reset.startup
                0xbfc00010      0x1e4 /opt/microchip/xc32/v1.22/bin/../lib/gcc/pic32mx/4.5.2/../../../../pic32mx/lib/crt0.o

.bev_excpt      0xbfc00380       0x10
 *(.bev_handler)
 .bev_handler   0xbfc00380       0x10 /opt/microchip/xc32/v1.22/bin/../lib/gcc/pic32mx/4.5.2/../../../../pic32mx/lib/crt0.o

.dbg_excpt      0xbfc00480        0x8
                0xbfc00480                . = (. + DEFINED (_DEBUGGER)?0x8:0x0)
 *fill*         0xbfc00480        0x8 

.dbg_code       0xbfc02000      0xff0
                0xbfc02000                . = (. + DEFINED (_DEBUGGER)?_DBG_CODE_SIZE:0x0)
 *fill*         0xbfc02000      0xff0 

.app_excpt      0x9fc01180       0x10
 *(.gen_handler)
 .gen_handler   0x9fc01180       0x10 /opt/microchip/xc32/v1.22/bin/../lib/gcc/pic32mx/4.5.2/../../../../pic32mx/lib/crt0.o

.vector_0       0x9fc01200        0x8
 *(.vector_0)
 .vector_0      0x9fc01200        0x8 /opt/microchip/xc32/v1.22/bin/../lib/gcc/pic32mx/4.5.2/../../../../pic32mx/lib/libpic32.a(vector0.o)
                0x9fc01200                __vector_dispatch_0
                0x00000001                ASSERT (((_vector_spacing == 0x0) || (SIZEOF (.vector_0) <= (_vector_spacing << 0x5))), function at exception vector 0 too large)

.vector_1       0x9fc01220        0x8
 *(.vector_1)
 .vector_1      0x9fc01220        0x8 build/default/debug/freertos/port.o
                0x9fc01220                __vector_dispatch_1
                0x00000001                ASSERT (((_vector_spacing == 0x0) || (SIZEOF (.vector_1) <= (_vector_spacing << 0x5))), function at exception vector 1 too large)

.vector_2       0x9fc01240        0x8
 *(.vector_2)
 .vector_2      0x9fc01240        0x8 /opt/microchip/xc32/v1.22/bin/../lib/gcc/pic32mx/4.5.2/../../../../pic32mx/lib/libpic32.a(vector2.o)
                0x9fc01240                __vector_dispatch_2
                0x00000001                ASSERT (((_vector_spacing == 0x0) || (SIZEOF (.vector_2) <= (_vector_spacing << 0x5))), function at exception vector 2 too large)

.vector_3       0x9fc01260        0x8
 *(.vector_3)
 .vector_3      0x9fc01260        0x8 /opt/microchip/xc32/v1.22/bin/../lib/gcc/pic32mx/4.5.2/../../../../pic32mx/lib/libpic32.a(vector3.o)
                0x9fc01260                __vector_dispatch_3
                0x00000001                ASSERT (((_vector_spacing == 0x0) || (SIZEOF (.vector_3) <= (_vector_spacing << 0x5))), function at exception vector 3 too large)

.vector_4       0x9fc01280        0x8
 *(.vector_4)
 .vector_4      0x9fc01280        0x8 build/default/debug/freertos/port.o
                0x9fc01280                __vector_dispatch_4
                0x00000001                ASSERT (((_vector_spacing == 0x0) || (SIZEOF (.vector_4) <= (_vector_spacing << 0x5))), function at exception vector 4 too large)

.vector_5       0x9fc012a0        0x8
 *(.vector_5)
 .vector_5      0x9fc012a0        0x8 /opt/microchip/xc32/v1.22/bin/../lib/gcc/pic32mx/4.5.2/../../../../pic32mx/lib/libpic32.a(vector5.o)
                0x9fc012a0                __vector_dispatch_5
                0x00000001                ASSERT (((_vector_spacing == 0x0) || (SIZEOF (.vector_5) <= (_vector_spacing << 0x5))), function at exception vector 5 too large)

.vector_6       0x9fc012c0        0x8
 *(.vector_6)
 .vector_6      0x9fc012c0        0x8 /opt/microchip/xc32/v1.22/bin/../lib/gcc/pic32mx/4.5.2/../../../../pic32mx/lib/libpic32.a(vector6.o)
                0x9fc012c0                __vector_dispatch_6
                0x00000001                ASSERT (((_vector_spacing == 0x0) || (SIZEOF (.vector_6) <= (_vector_spacing << 0x5))), function at exception vector 6 too large)

.vector_7       0x9fc012e0        0x8
 *(.vector_7)
 .vector_7      0x9fc012e0        0x8 /opt/microchip/xc32/v1.22/bin/../lib/gcc/pic32mx/4.5.2/../../../../pic32mx/lib/libpic32.a(vector7.o)
                0x9fc012e0                __vector_dispatch_7
                0x00000001                ASSERT (((_vector_spacing == 0x0) || (SIZEOF (.vector_7) <= (_vector_spacing << 0x5))), function at exception vector 7 too large)

.vector_8       0x9fc01300        0x8
 *(.vector_8)
 .vector_8      0x9fc01300        0x8 /opt/microchip/xc32/v1.22/bin/../lib/gcc/pic32mx/4.5.2/../../../../pic32mx/lib/libpic32.a(vector8.o)
                0x9fc01300                __vector_dispatch_8
                0x00000001                ASSERT (((_vector_spacing == 0x0) || (SIZEOF (.vector_8) <= (_vector_spacing << 0x5))), function at exception vector 8 too large)

.vector_9       0x9fc01320        0x8
 *(.vector_9)
 .vector_9      0x9fc01320        0x8 /opt/microchip/xc32/v1.22/bin/../lib/gcc/pic32mx/4.5.2/../../../../pic32mx/lib/libpic32.a(vector9.o)
                0x9fc01320                __vector_dispatch_9
                0x00000001                ASSERT (((_vector_spacing == 0x0) || (SIZEOF (.vector_9) <= (_vector_spacing << 0x5))), function at exception vector 9 too large)

.vector_10      0x9fc01340        0x8
 *(.vector_10)
 .vector_10     0x9fc01340        0x8 /opt/microchip/xc32/v1.22/bin/../lib/gcc/pic32mx/4.5.2/../../../../pic32mx/lib/libpic32.a(vector10.o)
                0x9fc01340                __vector_dispatch_10
                0x00000001                ASSERT (((_vector_spacing == 0x0) || (SIZEOF (.vector_10) <= (_vector_spacing << 0x5))), function at exception vector 10 too large)

.vector_11      0x9fc01360        0x8
 *(.vector_11)
 .vector_11     0x9fc01360        0x8 /opt/microchip/xc32/v1.22/bin/../lib/gcc/pic32mx/4.5.2/../../../../pic32mx/lib/libpic32.a(vector11.o)
                0x9fc01360                __vector_dispatch_11
                0x00000001                ASSERT (((_vector_spacing == 0x0) || (SIZEOF (.vector_11) <= (_vector_spacing << 0x5))), function at exception vector 11 too large)

.vector_12      0x9fc01380        0x8
 *(.vector_12)
 .vector_12     0x9fc01380        0x8 /opt/microchip/xc32/v1.22/bin/../lib/gcc/pic32mx/4.5.2/../../../../pic32mx/lib/libpic32.a(vector12.o)
                0x9fc01380                __vector_dispatch_12
                0x00000001                ASSERT (((_vector_spacing == 0x0) || (SIZEOF (.vector_12) <= (_vector_spacing << 0x5))), function at exception vector 12 too large)

.vector_13      0x9fc013a0        0x8
 *(.vector_13)
 .vector_13     0x9fc013a0        0x8 /opt/microchip/xc32/v1.22/bin/../lib/gcc/pic32mx/4.5.2/../../../../pic32mx/lib/libpic32.a(vector13.o)
                0x9fc013a0                __vector_dispatch_13
                0x00000001                ASSERT (((_vector_spacing == 0x0) || (SIZEOF (.vector_13) <= (_vector_spacing << 0x5))), function at exception vector 13 too large)

.vector_14      0x9fc013c0        0x8
 *(.vector_14)
 .vector_14     0x9fc013c0        0x8 /opt/microchip/xc32/v1.22/bin/../lib/gcc/pic32mx/4.5.2/../../../../pic32mx/lib/libpic32.a(vector14.o)
                0x9fc013c0                __vector_dispatch_14
                0x00000001                ASSERT (((_vector_spacing == 0x0) || (SIZEOF (.vector_14) <= (_vector_spacing << 0x5))), function at exception vector 14 too large)

.vector_15      0x9fc013e0        0x8
 *(.vector_15)
 .vector_15     0x9fc013e0        0x8 build/default/debug/contrib/ports/microchip/netif/Microchip_eth.o
                0x9fc013e0                __vector_dispatch_15
                0x00000001                ASSERT (((_vector_spacing == 0x0) || (SIZEOF (.vector_15) <= (_vector_spacing << 0x5))), function at exception vector 15 too large)

.vector_16      0x9fc01400        0x8
 *(.vector_16)
 .vector_16     0x9fc01400        0x8 /opt/microchip/xc32/v1.22/bin/../lib/gcc/pic32mx/4.5.2/../../../../pic32mx/lib/libpic32.a(vector16.o)
                0x9fc01400                __vector_dispatch_16
                0x00000001                ASSERT (((_vector_spacing == 0x0) || (SIZEOF (.vector_16) <= (_vector_spacing << 0x5))), function at exception vector 16 too large)

.vector_17      0x9fc01420        0x8
 *(.vector_17)
 .vector_17     0x9fc01420        0x8 /opt/microchip/xc32/v1.22/bin/../lib/gcc/pic32mx/4.5.2/../../../../pic32mx/lib/libpic32.a(vector17.o)
                0x9fc01420                __vector_dispatch_17
                0x00000001                ASSERT (((_vector_spacing == 0x0) || (SIZEOF (.vector_17) <= (_vector_spacing << 0x5))), function at exception vector 17 too large)

.vector_18      0x9fc01440        0x8
 *(.vector_18)
 .vector_18     0x9fc01440        0x8 /opt/microchip/xc32/v1.22/bin/../lib/gcc/pic32mx/4.5.2/../../../../pic32mx/lib/libpic32.a(vector18.o)
                0x9fc01440                __vector_dispatch_18
                0x00000001                ASSERT (((_vector_spacing == 0x0) || (SIZEOF (.vector_18) <= (_vector_spacing << 0x5))), function at exception vector 18 too large)

.vector_19      0x9fc01460        0x8
 *(.vector_19)
 .vector_19     0x9fc01460        0x8 /opt/microchip/xc32/v1.22/bin/../lib/gcc/pic32mx/4.5.2/../../../../pic32mx/lib/libpic32.a(vector19.o)
                0x9fc01460                __vector_dispatch_19
                0x00000001                ASSERT (((_vector_spacing == 0x0) || (SIZEOF (.vector_19) <= (_vector_spacing << 0x5))), function at exception vector 19 too large)

.vector_20      0x9fc01480        0x8
 *(.vector_20)
 .vector_20     0x9fc01480        0x8 /opt/microchip/xc32/v1.22/bin/../lib/gcc/pic32mx/4.5.2/../../../../pic32mx/lib/libpic32.a(vector20.o)
                0x9fc01480                __vector_dispatch_20
                0x00000001                ASSERT (((_vector_spacing == 0x0) || (SIZEOF (.vector_20) <= (_vector_spacing << 0x5))), function at exception vector 20 too large)

.vector_21      0x9fc014a0        0x8
 *(.vector_21)
 .vector_21     0x9fc014a0        0x8 /opt/microchip/xc32/v1.22/bin/../lib/gcc/pic32mx/4.5.2/../../../../pic32mx/lib/libpic32.a(vector21.o)
                0x9fc014a0                __vector_dispatch_21
                0x00000001                ASSERT (((_vector_spacing == 0x0) || (SIZEOF (.vector_21) <= (_vector_spacing << 0x5))), function at exception vector 21 too large)

.vector_22      0x9fc014c0        0x8
 *(.vector_22)
 .vector_22     0x9fc014c0        0x8 /opt/microchip/xc32/v1.22/bin/../lib/gcc/pic32mx/4.5.2/../../../../pic32mx/lib/libpic32.a(vector22.o)
                0x9fc014c0                __vector_dispatch_22
                0x00000001                ASSERT (((_vector_spacing == 0x0) || (SIZEOF (.vector_22) <= (_vector_spacing << 0x5))), function at exception vector 22 too large)

.vector_23      0x9fc014e0        0x8
 *(.vector_23)
 .vector_23     0x9fc014e0        0x8 /opt/microchip/xc32/v1.22/bin/../lib/gcc/pic32mx/4.5.2/../../../../pic32mx/lib/libpic32.a(vector23.o)
                0x9fc014e0                __vector_dispatch_23
                0x00000001                ASSERT (((_vector_spacing == 0x0) || (SIZEOF (.vector_23) <= (_vector_spacing << 0x5))), function at exception vector 23 too large)

.vector_24      0x9fc01500        0x8
 *(.vector_24)
 .vector_24     0x9fc01500        0x8 /opt/microchip/xc32/v1.22/bin/../lib/gcc/pic32mx/4.5.2/../../../../pic32mx/lib/libpic32.a(vector24.o)
                0x9fc01500                __vector_dispatch_24
                0x00000001                ASSERT (((_vector_spacing == 0x0) || (SIZEOF (.vector_24) <= (_vector_spacing << 0x5))), function at exception vector 24 too large)

.vector_25      0x9fc01520        0x8
 *(.vector_25)
 .vector_25     0x9fc01520        0x8 /opt/microchip/xc32/v1.22/bin/../lib/gcc/pic32mx/4.5.2/../../../../pic32mx/lib/libpic32.a(vector25.o)
                0x9fc01520                __vector_dispatch_25
                0x00000001                ASSERT (((_vector_spacing == 0x0) || (SIZEOF (.vector_25) <= (_vector_spacing << 0x5))), function at exception vector 25 too large)

.vector_26      0x9fc01540        0x8
 *(.vector_26)
 .vector_26     0x9fc01540        0x8 /opt/microchip/xc32/v1.22/bin/../lib/gcc/pic32mx/4.5.2/../../../../pic32mx/lib/libpic32.a(vector26.o)
                0x9fc01540                __vector_dispatch_26
                0x00000001                ASSERT (((_vector_spacing == 0x0) || (SIZEOF (.vector_26) <= (_vector_spacing << 0x5))), function at exception vector 26 too large)

.vector_27      0x9fc01560        0x8
 *(.vector_27)
 .vector_27     0x9fc01560        0x8 /opt/microchip/xc32/v1.22/bin/../lib/gcc/pic32mx/4.5.2/../../../../pic32mx/lib/libpic32.a(vector27.o)
                0x9fc01560                __vector_dispatch_27
                0x00000001                ASSERT (((_vector_spacing == 0x0) || (SIZEOF (.vector_27) <= (_vector_spacing << 0x5))), function at exception vector 27 too large)

.vector_28      0x9fc01580        0x8
 *(.vector_28)
 .vector_28     0x9fc01580        0x8 /opt/microchip/xc32/v1.22/bin/../lib/gcc/pic32mx/4.5.2/../../../../pic32mx/lib/libpic32.a(vector28.o)
                0x9fc01580                __vector_dispatch_28
                0x00000001                ASSERT (((_vector_spacing == 0x0) || (SIZEOF (.vector_28) <= (_vector_spacing << 0x5))), function at exception vector 28 too large)

.vector_29      0x9fc015a0        0x8
 *(.vector_29)
 .vector_29     0x9fc015a0        0x8 /opt/microchip/xc32/v1.22/bin/../lib/gcc/pic32mx/4.5.2/../../../../pic32mx/lib/libpic32.a(vector29.o)
                0x9fc015a0                __vector_dispatch_29
                0x00000001                ASSERT (((_vector_spacing == 0x0) || (SIZEOF (.vector_29) <= (_vector_spacing << 0x5))), function at exception vector 29 too large)

.vector_30      0x9fc015c0        0x8
 *(.vector_30)
 .vector_30     0x9fc015c0        0x8 /opt/microchip/xc32/v1.22/bin/../lib/gcc/pic32mx/4.5.2/../../../../pic32mx/lib/libpic32.a(vector30.o)
                0x9fc015c0                __vector_dispatch_30
                0x00000001                ASSERT (((_vector_spacing == 0x0) || (SIZEOF (.vector_30) <= (_vector_spacing << 0x5))), function at exception vector 30 too large)

.vector_31      0x9fc015e0        0x8
 *(.vector_31)
 .vector_31     0x9fc015e0        0x8 /opt/microchip/xc32/v1.22/bin/../lib/gcc/pic32mx/4.5.2/../../../../pic32mx/lib/libpic32.a(vector31.o)
                0x9fc015e0                __vector_dispatch_31
                0x00000001                ASSERT (((_vector_spacing == 0x0) || (SIZEOF (.vector_31) <= (_vector_spacing << 0x5))), function at exception vector 31 too large)

.vector_32      0x9fc01600        0x8
 *(.vector_32)
 .vector_32     0x9fc01600        0x8 /opt/microchip/xc32/v1.22/bin/../lib/gcc/pic32mx/4.5.2/../../../../pic32mx/lib/libpic32.a(vector32.o)
                0x9fc01600                __vector_dispatch_32
                0x00000001                ASSERT (((_vector_spacing == 0x0) || (SIZEOF (.vector_32) <= (_vector_spacing << 0x5))), function at exception vector 32 too large)

.vector_33      0x9fc01620        0x8
 *(.vector_33)
 .vector_33     0x9fc01620        0x8 /opt/microchip/xc32/v1.22/bin/../lib/gcc/pic32mx/4.5.2/../../../../pic32mx/lib/libpic32.a(vector33.o)
                0x9fc01620                __vector_dispatch_33
                0x00000001                ASSERT (((_vector_spacing == 0x0) || (SIZEOF (.vector_33) <= (_vector_spacing << 0x5))), function at exception vector 33 too large)

.vector_34      0x9fc01640        0x8
 *(.vector_34)
 .vector_34     0x9fc01640        0x8 /opt/microchip/xc32/v1.22/bin/../lib/gcc/pic32mx/4.5.2/../../../../pic32mx/lib/libpic32.a(vector34.o)
                0x9fc01640                __vector_dispatch_34
                0x00000001                ASSERT (((_vector_spacing == 0x0) || (SIZEOF (.vector_34) <= (_vector_spacing << 0x5))), function at exception vector 34 too large)

.vector_35      0x9fc01660        0x8
 *(.vector_35)
 .vector_35     0x9fc01660        0x8 /opt/microchip/xc32/v1.22/bin/../lib/gcc/pic32mx/4.5.2/../../../../pic32mx/lib/libpic32.a(vector35.o)
                0x9fc01660                __vector_dispatch_35
                0x00000001                ASSERT (((_vector_spacing == 0x0) || (SIZEOF (.vector_35) <= (_vector_spacing << 0x5))), function at exception vector 35 too large)

.vector_36      0x9fc01680        0x8
 *(.vector_36)
 .vector_36     0x9fc01680        0x8 /opt/microchip/xc32/v1.22/bin/../lib/gcc/pic32mx/4.5.2/../../../../pic32mx/lib/libpic32.a(vector36.o)
                0x9fc01680                __vector_dispatch_36
                0x00000001                ASSERT (((_vector_spacing == 0x0) || (SIZEOF (.vector_36) <= (_vector_spacing << 0x5))), function at exception vector 36 too large)

.vector_37      0x9fc016a0        0x8
 *(.vector_37)
 .vector_37     0x9fc016a0        0x8 /opt/microchip/xc32/v1.22/bin/../lib/gcc/pic32mx/4.5.2/../../../../pic32mx/lib/libpic32.a(vector37.o)
                0x9fc016a0                __vector_dispatch_37
                0x00000001                ASSERT (((_vector_spacing == 0x0) || (SIZEOF (.vector_37) <= (_vector_spacing << 0x5))), function at exception vector 37 too large)

.vector_38      0x9fc016c0        0x8
 *(.vector_38)
 .vector_38     0x9fc016c0        0x8 /opt/microchip/xc32/v1.22/bin/../lib/gcc/pic32mx/4.5.2/../../../../pic32mx/lib/libpic32.a(vector38.o)
                0x9fc016c0                __vector_dispatch_38
                0x00000001                ASSERT (((_vector_spacing == 0x0) || (SIZEOF (.vector_38) <= (_vector_spacing << 0x5))), function at exception vector 38 too large)

.vector_39      0x9fc016e0        0x8
 *(.vector_39)
 .vector_39     0x9fc016e0        0x8 /opt/microchip/xc32/v1.22/bin/../lib/gcc/pic32mx/4.5.2/../../../../pic32mx/lib/libpic32.a(vector39.o)
                0x9fc016e0                __vector_dispatch_39
                0x00000001                ASSERT (((_vector_spacing == 0x0) || (SIZEOF (.vector_39) <= (_vector_spacing << 0x5))), function at exception vector 39 too large)

.vector_40      0x9fc01700        0x8
 *(.vector_40)
 .vector_40     0x9fc01700        0x8 /opt/microchip/xc32/v1.22/bin/../lib/gcc/pic32mx/4.5.2/../../../../pic32mx/lib/libpic32.a(vector40.o)
                0x9fc01700                __vector_dispatch_40
                0x00000001                ASSERT (((_vector_spacing == 0x0) || (SIZEOF (.vector_40) <= (_vector_spacing << 0x5))), function at exception vector 40 too large)

.vector_41      0x9fc01720        0x8
 *(.vector_41)
 .vector_41     0x9fc01720        0x8 /opt/microchip/xc32/v1.22/bin/../lib/gcc/pic32mx/4.5.2/../../../../pic32mx/lib/libpic32.a(vector41.o)
                0x9fc01720                __vector_dispatch_41
                0x00000001                ASSERT (((_vector_spacing == 0x0) || (SIZEOF (.vector_41) <= (_vector_spacing << 0x5))), function at exception vector 41 too large)

.vector_42      0x9fc01740        0x8
 *(.vector_42)
 .vector_42     0x9fc01740        0x8 /opt/microchip/xc32/v1.22/bin/../lib/gcc/pic32mx/4.5.2/../../../../pic32mx/lib/libpic32.a(vector42.o)
                0x9fc01740                __vector_dispatch_42
                0x00000001                ASSERT (((_vector_spacing == 0x0) || (SIZEOF (.vector_42) <= (_vector_spacing << 0x5))), function at exception vector 42 too large)

.vector_43      0x9fc01760        0x8
 *(.vector_43)
 .vector_43     0x9fc01760        0x8 /opt/microchip/xc32/v1.22/bin/../lib/gcc/pic32mx/4.5.2/../../../../pic32mx/lib/libpic32.a(vector43.o)
                0x9fc01760                __vector_dispatch_43
                0x00000001                ASSERT (((_vector_spacing == 0x0) || (SIZEOF (.vector_43) <= (_vector_spacing << 0x5))), function at exception vector 43 too large)

.vector_44      0x9fc01780        0x8
 *(.vector_44)
 .vector_44     0x9fc01780        0x8 /opt/microchip/xc32/v1.22/bin/../lib/gcc/pic32mx/4.5.2/../../../../pic32mx/lib/libpic32.a(vector44.o)
                0x9fc01780                __vector_dispatch_44
                0x00000001                ASSERT (((_vector_spacing == 0x0) || (SIZEOF (.vector_44) <= (_vector_spacing << 0x5))), function at exception vector 44 too large)

.vector_45      0x9fc017a0        0x8
 *(.vector_45)
 .vector_45     0x9fc017a0        0x8 /opt/microchip/xc32/v1.22/bin/../lib/gcc/pic32mx/4.5.2/../../../../pic32mx/lib/libpic32.a(vector45.o)
                0x9fc017a0                __vector_dispatch_45
                0x00000001                ASSERT (((_vector_spacing == 0x0) || (SIZEOF (.vector_45) <= (_vector_spacing << 0x5))), function at exception vector 45 too large)

.vector_46      0x9fc017c0        0x8
 *(.vector_46)
 .vector_46     0x9fc017c0        0x8 /opt/microchip/xc32/v1.22/bin/../lib/gcc/pic32mx/4.5.2/../../../../pic32mx/lib/libpic32.a(vector46.o)
                0x9fc017c0                __vector_dispatch_46
                0x00000001                ASSERT (((_vector_spacing == 0x0) || (SIZEOF (.vector_46) <= (_vector_spacing << 0x5))), function at exception vector 46 too large)

.vector_47      0x9fc017e0        0x8
 *(.vector_47)
 .vector_47     0x9fc017e0        0x8 /opt/microchip/xc32/v1.22/bin/../lib/gcc/pic32mx/4.5.2/../../../../pic32mx/lib/libpic32.a(vector47.o)
                0x9fc017e0                __vector_dispatch_47
                0x00000001                ASSERT (((_vector_spacing == 0x0) || (SIZEOF (.vector_47) <= (_vector_spacing << 0x5))), function at exception vector 47 too large)

.vector_48      0x9fc01800        0x8
 *(.vector_48)
 .vector_48     0x9fc01800        0x8 build/default/debug/contrib/ports/microchip/netif/Microchip_eth.o
                0x9fc01800                __vector_dispatch_48
                0x00000001                ASSERT (((_vector_spacing == 0x0) || (SIZEOF (.vector_48) <= (_vector_spacing << 0x5))), function at exception vector 48 too large)

.vector_49      0x9fc01820        0x8
 *(.vector_49)
 .vector_49     0x9fc01820        0x8 /opt/microchip/xc32/v1.22/bin/../lib/gcc/pic32mx/4.5.2/../../../../pic32mx/lib/libpic32.a(vector49.o)
                0x9fc01820                __vector_dispatch_49
                0x00000001                ASSERT (((_vector_spacing == 0x0) || (SIZEOF (.vector_49) <= (_vector_spacing << 0x5))), function at exception vector 49 too large)

.vector_50      0x9fc01840        0x8
 *(.vector_50)
 .vector_50     0x9fc01840        0x8 /opt/microchip/xc32/v1.22/bin/../lib/gcc/pic32mx/4.5.2/../../../../pic32mx/lib/libpic32.a(vector50.o)
                0x9fc01840                __vector_dispatch_50
                0x00000001                ASSERT (((_vector_spacing == 0x0) || (SIZEOF (.vector_50) <= (_vector_spacing << 0x5))), function at exception vector 50 too large)

.vector_51      0x9fc01860        0x8
 *(.vector_51)
 .vector_51     0x9fc01860        0x8 /opt/microchip/xc32/v1.22/bin/../lib/gcc/pic32mx/4.5.2/../../../../pic32mx/lib/libpic32.a(vector51.o)
                0x9fc01860                __vector_dispatch_51
                0x00000001                ASSERT (((_vector_spacing == 0x0) || (SIZEOF (.vector_51) <= (_vector_spacing << 0x5))), function at exception vector 51 too large)

.vector_52      0x9fc01880        0x8
 *(.vector_52)
 .vector_52     0x9fc01880        0x8 /opt/microchip/xc32/v1.22/bin/../lib/gcc/pic32mx/4.5.2/../../../../pic32mx/lib/libpic32.a(vector52.o)
                0x9fc01880                __vector_dispatch_52
                0x00000001                ASSERT (((_vector_spacing == 0x0) || (SIZEOF (.vector_52) <= (_vector_spacing << 0x5))), function at exception vector 52 too large)

.vector_53      0x9fc018a0        0x8
 *(.vector_53)
 .vector_53     0x9fc018a0        0x8 /opt/microchip/xc32/v1.22/bin/../lib/gcc/pic32mx/4.5.2/../../../../pic32mx/lib/libpic32.a(vector53.o)
                0x9fc018a0                __vector_dispatch_53
                0x00000001                ASSERT (((_vector_spacing == 0x0) || (SIZEOF (.vector_53) <= (_vector_spacing << 0x5))), function at exception vector 53 too large)

.vector_54      0x9fc018c0        0x8
 *(.vector_54)
 .vector_54     0x9fc018c0        0x8 /opt/microchip/xc32/v1.22/bin/../lib/gcc/pic32mx/4.5.2/../../../../pic32mx/lib/libpic32.a(vector54.o)
                0x9fc018c0                __vector_dispatch_54
                0x00000001                ASSERT (((_vector_spacing == 0x0) || (SIZEOF (.vector_54) <= (_vector_spacing << 0x5))), function at exception vector 54 too large)

.vector_55      0x9fc018e0        0x8
 *(.vector_55)
 .vector_55     0x9fc018e0        0x8 /opt/microchip/xc32/v1.22/bin/../lib/gcc/pic32mx/4.5.2/../../../../pic32mx/lib/libpic32.a(vector55.o)
                0x9fc018e0                __vector_dispatch_55
                0x00000001                ASSERT (((_vector_spacing == 0x0) || (SIZEOF (.vector_55) <= (_vector_spacing << 0x5))), function at exception vector 55 too large)

.vector_56      0x9fc01900        0x8
 *(.vector_56)
 .vector_56     0x9fc01900        0x8 /opt/microchip/xc32/v1.22/bin/../lib/gcc/pic32mx/4.5.2/../../../../pic32mx/lib/libpic32.a(vector56.o)
                0x9fc01900                __vector_dispatch_56
                0x00000001                ASSERT (((_vector_spacing == 0x0) || (SIZEOF (.vector_56) <= (_vector_spacing << 0x5))), function at exception vector 56 too large)

.vector_57      0x9fc01920        0x8
 *(.vector_57)
 .vector_57     0x9fc01920        0x8 /opt/microchip/xc32/v1.22/bin/../lib/gcc/pic32mx/4.5.2/../../../../pic32mx/lib/libpic32.a(vector57.o)
                0x9fc01920                __vector_dispatch_57
                0x00000001                ASSERT (((_vector_spacing == 0x0) || (SIZEOF (.vector_57) <= (_vector_spacing << 0x5))), function at exception vector 57 too large)

.vector_58      0x9fc01940        0x8
 *(.vector_58)
 .vector_58     0x9fc01940        0x8 /opt/microchip/xc32/v1.22/bin/../lib/gcc/pic32mx/4.5.2/../../../../pic32mx/lib/libpic32.a(vector58.o)
                0x9fc01940                __vector_dispatch_58
                0x00000001                ASSERT (((_vector_spacing == 0x0) || (SIZEOF (.vector_58) <= (_vector_spacing << 0x5))), function at exception vector 58 too large)

.vector_59      0x9fc01960        0x8
 *(.vector_59)
 .vector_59     0x9fc01960        0x8 /opt/microchip/xc32/v1.22/bin/../lib/gcc/pic32mx/4.5.2/../../../../pic32mx/lib/libpic32.a(vector59.o)
                0x9fc01960                __vector_dispatch_59
                0x00000001                ASSERT (((_vector_spacing == 0x0) || (SIZEOF (.vector_59) <= (_vector_spacing << 0x5))), function at exception vector 59 too large)

.vector_60      0x9fc01980        0x8
 *(.vector_60)
 .vector_60     0x9fc01980        0x8 /opt/microchip/xc32/v1.22/bin/../lib/gcc/pic32mx/4.5.2/../../../../pic32mx/lib/libpic32.a(vector60.o)
                0x9fc01980                __vector_dispatch_60
                0x00000001                ASSERT (((_vector_spacing == 0x0) || (SIZEOF (.vector_60) <= (_vector_spacing << 0x5))), function at exception vector 60 too large)

.vector_61      0x9fc019a0        0x8
 *(.vector_61)
 .vector_61     0x9fc019a0        0x8 /opt/microchip/xc32/v1.22/bin/../lib/gcc/pic32mx/4.5.2/../../../../pic32mx/lib/libpic32.a(vector61.o)
                0x9fc019a0                __vector_dispatch_61
                0x00000001                ASSERT (((_vector_spacing == 0x0) || (SIZEOF (.vector_61) <= (_vector_spacing << 0x5))), function at exception vector 61 too large)

.vector_62      0x9fc019c0        0x8
 *(.vector_62)
 .vector_62     0x9fc019c0        0x8 /opt/microchip/xc32/v1.22/bin/../lib/gcc/pic32mx/4.5.2/../../../../pic32mx/lib/libpic32.a(vector62.o)
                0x9fc019c0                __vector_dispatch_62
                0x00000001                ASSERT (((_vector_spacing == 0x0) || (SIZEOF (.vector_62) <= (_vector_spacing << 0x5))), function at exception vector 62 too large)

.vector_63      0x9fc019e0        0x8
 *(.vector_63)
 .vector_63     0x9fc019e0        0x8 /opt/microchip/xc32/v1.22/bin/../lib/gcc/pic32mx/4.5.2/../../../../pic32mx/lib/libpic32.a(vector63.o)
                0x9fc019e0                __vector_dispatch_63
                0x00000001                ASSERT (((_vector_spacing == 0x0) || (SIZEOF (.vector_63) <= (_vector_spacing << 0x5))), function at exception vector 63 too large)

.startup
 *(.startup)

.text           0x9d000000        0x0
 *(.stub .gnu.linkonce.t.*)
 *(.text.*personality*)
 *(.mips16.fn.*)
 *(.mips16.call.*)
 *(.gnu.warning)
                0x9d000000                . = ALIGN (0x4)

.init           0x9d000000        0x0
 *crti.o(.init)
 *crtbegin.o(.init)
 *(EXCLUDE_FILE(*crtn.o *crtend?.o *crtend.o) .init)
 *crtend.o(.init)
 *crtn.o(.init)
                0x9d000000                . = ALIGN (0x4)

.fini           0x9d000000        0x0
 *(.fini)
                0x9d000000                . = ALIGN (0x4)

.preinit_array  0x9d000000        0x0
                0x9d000000                PROVIDE (__preinit_array_start, .)
 *(.preinit_array)
                0x9d000000                PROVIDE (__preinit_array_end, .)
                0x9d000000                . = ALIGN (0x4)

.init_array     0x9d000000        0x0
                0x9d000000                PROVIDE (__init_array_start, .)
 *(SORT(.init_array.*))
 *(.init_array)
                0x9d000000                PROVIDE (__init_array_end, .)
                0x9d000000                . = ALIGN (0x4)

.fini_array     0x9d000000        0x0
                0x9d000000                PROVIDE (__fini_array_start, .)
 *(SORT(.fini_array.*))
 *(.fini_array)
                0x9d000000                PROVIDE (__fini_array_end, .)
                0x9d000000                . = ALIGN (0x4)

.ctors          0x9d000000        0x0
 *crtbegin.o(.ctors)
 *crtbegin?.o(.ctors)
 *(EXCLUDE_FILE(*crtend?.o *crtend.o) .ctors)
 *(SORT(.ctors.*))
 *(.ctors)
                0x9d000000                . = ALIGN (0x4)

.dtors          0x9d000000        0x0
 *crtbegin.o(.dtors)
 *crtbegin?.o(.dtors)
 *(EXCLUDE_FILE(*crtend?.o *crtend.o) .dtors)
 *(SORT(.dtors.*))
 *(.dtors)
                0x9d000000                . = ALIGN (0x4)

.rodata         0x9d000000        0x0
 *(.gnu.linkonce.r.*)
 *(.rodata1)
                0x9d000000                . = ALIGN (0x4)

.sdata2         0x9fc00490        0x0
 *(.sdata2 .sdata2.* .gnu.linkonce.s2.*)
                0x9fc00490                . = ALIGN (0x4)

.sbss2          0x9fc00490        0x0
 *(.sbss2 .sbss2.* .gnu.linkonce.sb2.*)
                0x9fc00490                . = ALIGN (0x4)

.eh_frame_hdr
 *(.eh_frame_hdr)
                0x9fc00490                . = ALIGN (0x4)

.eh_frame
 *(.eh_frame)
                0x9fc00490                . = ALIGN (0x4)

.gcc_except_table
 *(.gcc_except_table .gcc_except_table.*)
                0x9fc00490                . = ALIGN (0x4)

.dbg_data       0xa0000000      0x200
                0xa0000000                . = (. + DEFINED (_DEBUGGER)?0x200:0x0)
 *fill*         0xa0000000      0x200 

.jcr            0xa0000200        0x0
 *(.jcr)
                0xa0000200                . = ALIGN (0x4)

.eh_frame       0xa0000200       0x30
 *(.eh_frame)
 .eh_frame      0xa0000200       0x20 /opt/microchip/xc32/v1.22/bin/../lib/gcc/pic32mx/4.5.2/libgcc.a(_udivdi3.o)
 .eh_frame      0xa0000220       0x10 /opt/microchip/xc32/v1.22/bin/../lib/gcc/pic32mx/4.5.2/libgcc.a(_umoddi3.o)
                0xa0000230                . = ALIGN (0x4)

.gcc_except_table
 *(.gcc_except_table .gcc_except_table.*)
                0xa0000230                . = ALIGN (0x4)

.persist        0xa0000230        0x0
                0xa0000230                _persist_begin = .
 *(.persist .persist.*)
 *(.pbss .pbss.*)
                0xa0000230                . = ALIGN (0x4)
                0xa0000230                _persist_end = .

.data           0xa0000230        0x0
 *(.gnu.linkonce.d.*)
 *(.data1)
                0xa0000230                . = ALIGN (0x4)
                0xa0000230                . = .
                0xa0008220                _gp = (ALIGN (0x10) + 0x7ff0)

.got            0xa0000230        0x0
 *(.got.plt)
 *(.got)
                0xa0000230                . = ALIGN (0x4)

.sdata          0xa0000230       0x20
                0xa0000230                _sdata_begin = .
 *(.sdata .sdata.* .gnu.linkonce.s.*)
 .sdata         0xa0000230        0x4 build/default/debug/freertos/port.o
                0xa0000230                uxInterruptNesting
 .sdata         0xa0000234        0x4 build/default/debug/freertos/tasks.o
                0xa0000234                xNextTaskUnblockTime
 .sdata         0xa0000238        0x2 build/default/debug/lwip-1.4.1/src/core/udp.o
 *fill*         0xa000023a        0x2 
 .sdata         0xa000023c        0x8 build/default/debug/lwip-1.4.1/src/core/tcp.o
 .sdata         0xa0000244        0x2 build/default/debug/src/echo.o
                0xa0000244                echo_port
 *fill*         0xa0000246        0x2 
 .sdata         0xa0000248        0x4 /opt/microchip/xc32/v1.22/bin/../lib/gcc/pic32mx/4.5.2/../../../../pic32mx/lib/libpic32.a(xc32_uart.o)
                0xa0000248                __XC_UART
 .sdata         0xa000024c        0x4 /opt/microchip/xc32/v1.22/bin/../lib/gcc/pic32mx/4.5.2/../../../../pic32mx/lib/libc.a(_iob.o)
                0xa000024c                _Files
                0xa0000250                . = ALIGN (0x4)
                0xa0000250                _sdata_end = .

.lit8
 *(.lit8)

.lit4
 *(.lit4)
                0xa0000250                . = ALIGN (0x4)
                0xa0000250                _data_end = .
                0xa0000250                _bss_begin = .

.sbss           0xa0000250      0x150
                0xa0000250                _sbss_begin = .
 *(.dynsbss)
 *(.sbss .sbss.* .gnu.linkonce.sb.*)
 .sbss          0xa0000250        0x8 build/default/debug/contrib/ports/microchip/ethernetif.o
 .sbss          0xa0000258       0x10 build/default/debug/freertos/timers.o
 .sbss          0xa0000268        0x4 build/default/debug/freertos/port.o
                0xa0000268                uxSavedTaskStackPointer
 .sbss          0xa000026c       0x2c build/default/debug/freertos/tasks.o
                0xa000026c                pxCurrentTCB
                0xa0000270                uxTasksDeleted
                0xa0000274                uxCurrentNumberOfTasks
                0xa0000278                xTickCount
                0xa000027c                uxTopReadyPriority
                0xa0000280                xSchedulerRunning
                0xa0000284                uxPendedTicks
                0xa0000288                xYieldPending
                0xa000028c                xNumOfOverflows
                0xa0000290                uxTaskNumber
                0xa0000294                uxSchedulerSuspended
 .sbss          0xa0000298       0x14 build/default/debug/freertos/croutine.o
                0xa0000298                pxCurrentCoRoutine
                0xa000029c                uxTopCoRoutineReadyPriority
                0xa00002a0                xCoRoutineTickCount
                0xa00002a4                xLastTickCount
                0xa00002a8                xPassedTicks
 .sbss          0xa00002ac        0xc build/default/debug/lwip-1.4.1/src/api/tcpip.o
 .sbss          0xa00002b8        0x8 build/default/debug/lwip-1.4.1/src/api/sockets.o
 .sbss          0xa00002c0        0x8 build/default/debug/lwip-1.4.1/src/core/ipv4/ip_frag.o
 .sbss          0xa00002c8        0x2 build/default/debug/lwip-1.4.1/src/core/ipv4/ip.o
 *fill*         0xa00002ca        0x2 
 .sbss          0xa00002cc        0x8 build/default/debug/lwip-1.4.1/src/core/timers.o
 .sbss          0xa00002d4        0x1 build/default/debug/lwip-1.4.1/src/core/netif.o
 *fill*         0xa00002d5        0x3 
 .sbss          0xa00002d8       0x10 build/default/debug/lwip-1.4.1/src/core/mem.o
 .sbss          0xa00002e8        0x4 build/default/debug/lwip-1.4.1/src/core/dhcp.o
 .sbss          0xa00002ec       0x1c build/default/debug/lwip-1.4.1/src/core/tcp_in.o
 .sbss          0xa0000308        0x2 build/default/debug/lwip-1.4.1/src/core/tcp.o
 .sbss          0xa000030a        0x1 build/default/debug/lwip-1.4.1/src/netif/etharp.o
 *fill*         0xa000030b        0x1 
 .sbss          0xa000030c       0x20 /opt/microchip/xc32/v1.22/bin/../lib/gcc/pic32mx/4.5.2/../../../../pic32mx/lib/libmchp_peripheral_32MX795F512L.a(eth_descriptors_add_lib.o)
                0xa000030c                _EthTxFreeList
                0xa0000314                _EthTxBusyList
                0xa000031c                _EthRxFreeList
                0xa0000324                _EthRxBusyList
 .sbss          0xa000032c        0x1 /opt/microchip/xc32/v1.22/bin/../lib/gcc/pic32mx/4.5.2/../../../../pic32mx/lib/libc.a(_iob.o)
                0xa000032c                _outdone
 *fill*         0xa000032d        0x3 
 .sbss          0xa0000330       0x10 /opt/microchip/xc32/v1.22/bin/../lib/gcc/pic32mx/4.5.2/../../../../pic32mx/lib/libc.a(malloc.o)
                0xa0000330                __allocp
                0xa0000334                __alloct
                0xa0000338                __allocx
 .sbss          0xa0000340        0x4 /opt/microchip/xc32/v1.22/bin/../lib/gcc/pic32mx/4.5.2/../../../../pic32mx/lib/libc.a(errno.o)
                0xa0000340                errno
 .sbss          0xa0000344        0x8 /opt/microchip/xc32/v1.22/bin/../lib/gcc/pic32mx/4.5.2/../../../../pic32mx/lib/libpic32.a(sbrk.o)
                0xa0000344                _minbrk
                0xa0000348                _maxbrk
 *(.scommon)
 .scommon       0xa000034c        0x4 build/default/debug/contrib/ports/microchip/netif/ETHPIC32ExtPhy.o
                0xa000034c                _PhyAdd
 .scommon       0xa0000350        0x8 build/default/debug/freertos/tasks.o
                0xa0000350                pxDelayedTaskList
                0xa0000354                pxOverflowDelayedTaskList
 .scommon       0xa0000358        0x8 build/default/debug/freertos/croutine.o
                0xa0000358                pxOverflowDelayedCoRoutineList
                0xa000035c                pxDelayedCoRoutineList
 .scommon       0xa0000360       0x10 build/default/debug/lwip-1.4.1/src/core/ipv4/ip.o
                0xa0000360                current_iphdr_src
                0xa0000364                current_netif
                0xa0000368                current_header
                0xa000036c                current_iphdr_dest
 .scommon       0xa0000370        0x8 build/default/debug/lwip-1.4.1/src/core/netif.o
                0xa0000370                netif_default
                0xa0000374                netif_list
 .scommon       0xa0000378        0x1 build/default/debug/lwip-1.4.1/src/core/pbuf.o
                0xa0000378                pbuf_free_ooseq_pending
 *fill*         0xa0000379        0x3 
 .scommon       0xa000037c        0x4 build/default/debug/lwip-1.4.1/src/core/tcp_in.o
                0xa000037c                tcp_input_pcb
 .scommon       0xa0000380        0x4 build/default/debug/lwip-1.4.1/src/core/udp.o
                0xa0000380                udp_pcbs
 .scommon       0xa0000384       0x19 build/default/debug/lwip-1.4.1/src/core/tcp.o
                0xa0000384                tcp_tw_pcbs
                0xa0000388                tcp_ticks
                0xa000038c                tcp_tmp_pcb
                0xa0000390                tcp_listen_pcbs
                0xa0000394                tcp_active_pcbs
                0xa0000398                tcp_bound_pcbs
                0xa000039c                tcp_active_pcbs_changed
                0xa000039d                _sbss_end = .
                0xa00003a0                . = ALIGN (0x4)
 *fill*         0xa000039d        0x3 

.bss            0xa00003a0     0x2174
 *(.dynbss)
 *(COMMON)
 COMMON         0xa00003a0       0xc8 build/default/debug/freertos/tasks.o
                0xa00003a0                pxReadyTasksLists
                0xa0000404                xPendingReadyList
                0xa0000418                xTasksWaitingTermination
                0xa000042c                xSuspendedTaskList
                0xa0000440                xDelayedTaskList2
                0xa0000454                xDelayedTaskList1
 COMMON         0xa0000468       0x64 build/default/debug/freertos/croutine.o
                0xa0000468                xDelayedCoRoutineList2
                0xa000047c                xDelayedCoRoutineList1
                0xa0000490                pxReadyCoRoutineLists
                0xa00004b8                xPendingReadyCoRoutineList
 COMMON         0xa00004cc     0x2014 build/default/debug/lwip-1.4.1/src/core/mem.o
                0xa00004cc                ram_heap
 COMMON         0xa00024e0       0x32 build/default/debug/lwip-1.4.1/src/core/dhcp.o
                0xa00024e0                dhcp_rx_options_val
                0xa0002508                dhcp_rx_options_given
                0xa0002514                . = ALIGN ((. != 0x0)?0x4:0x1)
 *fill*         0xa0002512        0x2 
                0xa0002514                . = ALIGN (0x4)
                0xa0002514                _end = .
                0xa0002514                _bss_end = .
                0x00020000                _bmxdudba_address = 0x20000
                0x00020000                _bmxdupba_address = 0x20000

/DISCARD/
 *(.pdr)
 *(.rel.dyn)
 *(.note.GNU-stack)
 *(.note.GNU-stack)
 *(.gnu_debuglink)
 *(.gnu.lto_*)
 *(.discard)

.gptab.sdata
 *(.gptab.data)
 *(.gptab.sdata)

.gptab.sbss
 *(.gptab.bss)
 *(.gptab.sbss)

.mdebug.abi32   0xa0002514        0x0
 *(.mdebug.abi32)
 .mdebug.abi32  0xa0002514        0x0 build/default/debug/contrib/ports/microchip/netif/ETHPIC32ExtPhyDP83848.o
 .mdebug.abi32  0xa0002514        0x0 build/default/debug/contrib/ports/microchip/netif/xadapter.o
 .mdebug.abi32  0xa0002514        0x0 build/default/debug/contrib/ports/microchip/netif/Microchip_eth.o
 .mdebug.abi32  0xa0002514        0x0 build/default/debug/contrib/ports/microchip/netif/ETHPIC32ExtPhy.o
 .mdebug.abi32  0xa0002514        0x0 build/default/debug/contrib/ports/microchip/sys_arch_raw.o
 .mdebug.abi32  0xa0002514        0x0 build/default/debug/contrib/ports/microchip/sys_arch.o
 .mdebug.abi32  0xa0002514        0x0 build/default/debug/contrib/ports/microchip/ethernetif.o
 .mdebug.abi32  0xa0002514        0x0 build/default/debug/freertos/heap/heap_3.o
 .mdebug.abi32  0xa0002514        0x0 build/default/debug/freertos/timers.o
 .mdebug.abi32  0xa0002514        0x0 build/default/debug/freertos/port.o
 .mdebug.abi32  0xa0002514        0x0 build/default/debug/freertos/list.o
 .mdebug.abi32  0xa0002514        0x0 build/default/debug/freertos/tasks.o
 .mdebug.abi32  0xa0002514        0x0 build/default/debug/freertos/croutine.o
 .mdebug.abi32  0xa0002514        0x0 build/default/debug/freertos/queue.o
 .mdebug.abi32  0xa0002514        0x0 build/default/debug/lwip-1.4.1/src/api/api_msg.o
 .mdebug.abi32  0xa0002514        0x0 build/default/debug/lwip-1.4.1/src/api/netbuf.o
 .mdebug.abi32  0xa0002514        0x0 build/default/debug/lwip-1.4.1/src/api/netdb.o
 .mdebug.abi32  0xa0002514        0x0 build/default/debug/lwip-1.4.1/src/api/tcpip.o
 .mdebug.abi32  0xa0002514        0x0 build/default/debug/lwip-1.4.1/src/api/sockets.o
 .mdebug.abi32  0xa0002514        0x0 build/default/debug/lwip-1.4.1/src/api/netifapi.o
 .mdebug.abi32  0xa0002514        0x0 build/default/debug/lwip-1.4.1/src/api/err.o
 .mdebug.abi32  0xa0002514        0x0 build/default/debug/lwip-1.4.1/src/api/api_lib.o
 .mdebug.abi32  0xa0002514        0x0 build/default/debug/lwip-1.4.1/src/core/ipv4/autoip.o
 .mdebug.abi32  0xa0002514        0x0 build/default/debug/lwip-1.4.1/src/core/ipv4/ip_addr.o
 .mdebug.abi32  0xa0002514        0x0 build/default/debug/lwip-1.4.1/src/core/ipv4/inet_chksum.o
 .mdebug.abi32  0xa0002514        0x0 build/default/debug/lwip-1.4.1/src/core/ipv4/icmp.o
 .mdebug.abi32  0xa0002514        0x0 build/default/debug/lwip-1.4.1/src/core/ipv4/inet.o
 .mdebug.abi32  0xa0002514        0x0 build/default/debug/lwip-1.4.1/src/core/ipv4/ip_frag.o
 .mdebug.abi32  0xa0002514        0x0 build/default/debug/lwip-1.4.1/src/core/ipv4/ip.o
 .mdebug.abi32  0xa0002514        0x0 build/default/debug/lwip-1.4.1/src/core/ipv4/igmp.o
 .mdebug.abi32  0xa0002514        0x0 build/default/debug/lwip-1.4.1/src/core/snmp/asn1_enc.o
 .mdebug.abi32  0xa0002514        0x0 build/default/debug/lwip-1.4.1/src/core/snmp/msg_out.o
 .mdebug.abi32  0xa0002514        0x0 build/default/debug/lwip-1.4.1/src/core/snmp/mib2.o
 .mdebug.abi32  0xa0002514        0x0 build/default/debug/lwip-1.4.1/src/core/snmp/asn1_dec.o
 .mdebug.abi32  0xa0002514        0x0 build/default/debug/lwip-1.4.1/src/core/snmp/msg_in.o
 .mdebug.abi32  0xa0002514        0x0 build/default/debug/lwip-1.4.1/src/core/snmp/mib_structs.o
 .mdebug.abi32  0xa0002514        0x0 build/default/debug/lwip-1.4.1/src/core/timers.o
 .mdebug.abi32  0xa0002514        0x0 build/default/debug/lwip-1.4.1/src/core/memp.o
 .mdebug.abi32  0xa0002514        0x0 build/default/debug/lwip-1.4.1/src/core/netif.o
 .mdebug.abi32  0xa0002514        0x0 build/default/debug/lwip-1.4.1/src/core/pbuf.o
 .mdebug.abi32  0xa0002514        0x0 build/default/debug/lwip-1.4.1/src/core/mem.o
 .mdebug.abi32  0xa0002514        0x0 build/default/debug/lwip-1.4.1/src/core/dhcp.o
 .mdebug.abi32  0xa0002514        0x0 build/default/debug/lwip-1.4.1/src/core/tcp_out.o
 .mdebug.abi32  0xa0002514        0x0 build/default/debug/lwip-1.4.1/src/core/stats.o
 .mdebug.abi32  0xa0002514        0x0 build/default/debug/lwip-1.4.1/src/core/tcp_in.o
 .mdebug.abi32  0xa0002514        0x0 build/default/debug/lwip-1.4.1/src/core/def.o
 .mdebug.abi32  0xa0002514        0x0 build/default/debug/lwip-1.4.1/src/core/raw.o
 .mdebug.abi32  0xa0002514        0x0 build/default/debug/lwip-1.4.1/src/core/dns.o
 .mdebug.abi32  0xa0002514        0x0 build/default/debug/lwip-1.4.1/src/core/udp.o
 .mdebug.abi32  0xa0002514        0x0 build/default/debug/lwip-1.4.1/src/core/init.o
 .mdebug.abi32  0xa0002514        0x0 build/default/debug/lwip-1.4.1/src/core/sys.o
 .mdebug.abi32  0xa0002514        0x0 build/default/debug/lwip-1.4.1/src/core/tcp.o
 .mdebug.abi32  0xa0002514        0x0 build/default/debug/lwip-1.4.1/src/netif/ppp/ppp_oe.o
 .mdebug.abi32  0xa0002514        0x0 build/default/debug/lwip-1.4.1/src/netif/ppp/chap.o
 .mdebug.abi32  0xa0002514        0x0 build/default/debug/lwip-1.4.1/src/netif/ppp/vj.o
 .mdebug.abi32  0xa0002514        0x0 build/default/debug/lwip-1.4.1/src/netif/ppp/ipcp.o
 .mdebug.abi32  0xa0002514        0x0 build/default/debug/lwip-1.4.1/src/netif/ppp/fsm.o
 .mdebug.abi32  0xa0002514        0x0 build/default/debug/lwip-1.4.1/src/netif/ppp/md5.o
 .mdebug.abi32  0xa0002514        0x0 build/default/debug/lwip-1.4.1/src/netif/ppp/magic.o
 .mdebug.abi32  0xa0002514        0x0 build/default/debug/lwip-1.4.1/src/netif/ppp/auth.o
 .mdebug.abi32  0xa0002514        0x0 build/default/debug/lwip-1.4.1/src/netif/ppp/chpms.o
 .mdebug.abi32  0xa0002514        0x0 build/default/debug/lwip-1.4.1/src/netif/ppp/pap.o
 .mdebug.abi32  0xa0002514        0x0 build/default/debug/lwip-1.4.1/src/netif/ppp/randm.o
 .mdebug.abi32  0xa0002514        0x0 build/default/debug/lwip-1.4.1/src/netif/ppp/lcp.o
 .mdebug.abi32  0xa0002514        0x0 build/default/debug/lwip-1.4.1/src/netif/ppp/ppp.o
 .mdebug.abi32  0xa0002514        0x0 build/default/debug/lwip-1.4.1/src/netif/etharp.o
 .mdebug.abi32  0xa0002514        0x0 build/default/debug/lwip-1.4.1/src/netif/ethernetif.o
 .mdebug.abi32  0xa0002514        0x0 build/default/debug/lwip-1.4.1/src/netif/slipif.o
 .mdebug.abi32  0xa0002514        0x0 build/default/debug/src/main.o
 .mdebug.abi32  0xa0002514        0x0 build/default/debug/src/ip_lwip.o
 .mdebug.abi32  0xa0002514        0x0 build/default/debug/src/echo.o
 .mdebug.abi32  0xa0002514        0x0 /opt/microchip/xc32/v1.22/bin/../lib/gcc/pic32mx/4.5.2/../../../../pic32mx/lib/libmchp_peripheral.a(read_core_timer_lib.o)
 .mdebug.abi32  0xa0002514        0x0 /opt/microchip/xc32/v1.22/bin/../lib/gcc/pic32mx/4.5.2/../../../../pic32mx/lib/libmchp_peripheral_32MX795F512L.a(eth_ack_packet_lib.o)
 .mdebug.abi32  0xa0002514        0x0 /opt/microchip/xc32/v1.22/bin/../lib/gcc/pic32mx/4.5.2/../../../../pic32mx/lib/libmchp_peripheral_32MX795F512L.a(eth_descriptors_add_lib.o)
 .mdebug.abi32  0xa0002514        0x0 /opt/microchip/xc32/v1.22/bin/../lib/gcc/pic32mx/4.5.2/../../../../pic32mx/lib/libmchp_peripheral_32MX795F512L.a(eth_init_lib.o)
 .mdebug.abi32  0xa0002514        0x0 /opt/microchip/xc32/v1.22/bin/../lib/gcc/pic32mx/4.5.2/../../../../pic32mx/lib/libmchp_peripheral_32MX795F512L.a(eth_mac_open_lib.o)
 .mdebug.abi32  0xa0002514        0x0 /opt/microchip/xc32/v1.22/bin/../lib/gcc/pic32mx/4.5.2/../../../../pic32mx/lib/libmchp_peripheral_32MX795F512L.a(eth_mac_set_address_max_lib.o)
 .mdebug.abi32  0xa0002514        0x0 /opt/microchip/xc32/v1.22/bin/../lib/gcc/pic32mx/4.5.2/../../../../pic32mx/lib/libmchp_peripheral_32MX795F512L.a(eth_rx_buffers_append_lib.o)
 .mdebug.abi32  0xa0002514        0x0 /opt/microchip/xc32/v1.22/bin/../lib/gcc/pic32mx/4.5.2/../../../../pic32mx/lib/libmchp_peripheral_32MX795F512L.a(eth_rx_filters_lib.o)
 .mdebug.abi32  0xa0002514        0x0 /opt/microchip/xc32/v1.22/bin/../lib/gcc/pic32mx/4.5.2/../../../../pic32mx/lib/libmchp_peripheral_32MX795F512L.a(eth_rx_get_packet_lib.o)
 .mdebug.abi32  0xa0002514        0x0 /opt/microchip/xc32/v1.22/bin/../lib/gcc/pic32mx/4.5.2/../../../../pic32mx/lib/libmchp_peripheral_32MX795F512L.a(eth_rx_set_buffer_size_lib.o)
 .mdebug.abi32  0xa0002514        0x0 /opt/microchip/xc32/v1.22/bin/../lib/gcc/pic32mx/4.5.2/../../../../pic32mx/lib/libmchp_peripheral_32MX795F512L.a(eth_tx_packet_lib.o)
 .mdebug.abi32  0xa0002514        0x0 /opt/microchip/xc32/v1.22/bin/../lib/gcc/pic32mx/4.5.2/../../../../pic32mx/lib/libmchp_peripheral_32MX795F512L.a(_eth_append_busy_list_lib.o)
 .mdebug.abi32  0xa0002514        0x0 /opt/microchip/xc32/v1.22/bin/../lib/gcc/pic32mx/4.5.2/../../../../pic32mx/lib/libmchp_peripheral_32MX795F512L.a(eth_miim_access.o)
 .mdebug.abi32  0xa0002514        0x0 /opt/microchip/xc32/v1.22/bin/../lib/gcc/pic32mx/4.5.2/../../../../pic32mx/lib/libmchp_peripheral_32MX795F512L.a(int_tbl_lib.o)
 .mdebug.abi32  0xa0002514        0x0 /opt/microchip/xc32/v1.22/bin/../lib/gcc/pic32mx/4.5.2/../../../../pic32mx/lib/libmchp_peripheral_32MX795F512L.a(port_set_pins_digital_in_lib.o)
 .mdebug.abi32  0xa0002514        0x0 /opt/microchip/xc32/v1.22/bin/../lib/gcc/pic32mx/4.5.2/../../../../pic32mx/lib/libmchp_peripheral_32MX795F512L.a(port_set_pins_digital_out_lib.o)
 .mdebug.abi32  0xa0002514        0x0 /opt/microchip/xc32/v1.22/bin/../lib/gcc/pic32mx/4.5.2/../../../../pic32mx/lib/libmchp_peripheral_32MX795F512L.a(_ports_tbl_libp.o)
 .mdebug.abi32  0xa0002514        0x0 /opt/microchip/xc32/v1.22/bin/../lib/gcc/pic32mx/4.5.2/../../../../pic32mx/lib/libpic32.a(default-bootstrap-exception-handler.o)
 .mdebug.abi32  0xa0002514        0x0 /opt/microchip/xc32/v1.22/bin/../lib/gcc/pic32mx/4.5.2/../../../../pic32mx/lib/libpic32.a(default-on-reset.o)
 .mdebug.abi32  0xa0002514        0x0 /opt/microchip/xc32/v1.22/bin/../lib/gcc/pic32mx/4.5.2/../../../../pic32mx/lib/libpic32.a(default-on-bootstrap.o)
 .mdebug.abi32  0xa0002514        0x0 /opt/microchip/xc32/v1.22/bin/../lib/gcc/pic32mx/4.5.2/../../../../pic32mx/lib/libpic32.a(default-general-exception-handler.o)
 .mdebug.abi32  0xa0002514        0x0 /opt/microchip/xc32/v1.22/bin/../lib/gcc/pic32mx/4.5.2/../../../../pic32mx/lib/libpic32.a(defaultinterrupt.o)
 .mdebug.abi32  0xa0002514        0x0 /opt/microchip/xc32/v1.22/bin/../lib/gcc/pic32mx/4.5.2/../../../../pic32mx/lib/libdebug.a(db_utils.o)
 .mdebug.abi32  0xa0002514        0x0 /opt/microchip/xc32/v1.22/bin/../lib/gcc/pic32mx/4.5.2/../../../../pic32mx/lib/libpic32.a(xc32_uart.o)
 .mdebug.abi32  0xa0002514        0x0 /opt/microchip/xc32/v1.22/bin/../lib/gcc/pic32mx/4.5.2/../../../../pic32mx/lib/libc.a(_iob.o)
 .mdebug.abi32  0xa0002514        0x0 /opt/microchip/xc32/v1.22/bin/../lib/gcc/pic32mx/4.5.2/../../../../pic32mx/lib/libc.a(calloc.o)
 .mdebug.abi32  0xa0002514        0x0 /opt/microchip/xc32/v1.22/bin/../lib/gcc/pic32mx/4.5.2/../../../../pic32mx/lib/libc.a(malloc.o)
 .mdebug.abi32  0xa0002514        0x0 /opt/microchip/xc32/v1.22/bin/../lib/gcc/pic32mx/4.5.2/../../../../pic32mx/lib/libc.a(puts.o)
 .mdebug.abi32  0xa0002514        0x0 /opt/microchip/xc32/v1.22/bin/../lib/gcc/pic32mx/4.5.2/../../../../pic32mx/lib/libc.a(rand.o)
 .mdebug.abi32  0xa0002514        0x0 /opt/microchip/xc32/v1.22/bin/../lib/gcc/pic32mx/4.5.2/../../../../pic32mx/lib/libc.a(setbuf.o)
 .mdebug.abi32  0xa0002514        0x0 /opt/microchip/xc32/v1.22/bin/../lib/gcc/pic32mx/4.5.2/../../../../pic32mx/lib/libc.a(strncmp.o)
 .mdebug.abi32  0xa0002514        0x0 /opt/microchip/xc32/v1.22/bin/../lib/gcc/pic32mx/4.5.2/../../../../pic32mx/lib/libc.a(printf_cdnopsuxX.eo)
 .mdebug.abi32  0xa0002514        0x0 /opt/microchip/xc32/v1.22/bin/../lib/gcc/pic32mx/4.5.2/../../../../pic32mx/lib/libc.a(printf.o)
 .mdebug.abi32  0xa0002514        0x0 /opt/microchip/xc32/v1.22/bin/../lib/gcc/pic32mx/4.5.2/../../../../pic32mx/lib/libc.a(_fputc_simple.o)
 .mdebug.abi32  0xa0002514        0x0 /opt/microchip/xc32/v1.22/bin/../lib/gcc/pic32mx/4.5.2/../../../../pic32mx/lib/libc.a(buf.o)
 .mdebug.abi32  0xa0002514        0x0 /opt/microchip/xc32/v1.22/bin/../lib/gcc/pic32mx/4.5.2/../../../../pic32mx/lib/libc.a(errno.o)
 .mdebug.abi32  0xa0002514        0x0 /opt/microchip/xc32/v1.22/bin/../lib/gcc/pic32mx/4.5.2/../../../../pic32mx/lib/libc.a(doprnt_cdnopsuxX.eo)
 .mdebug.abi32  0xa0002514        0x0 /opt/microchip/xc32/v1.22/bin/../lib/gcc/pic32mx/4.5.2/../../../../pic32mx/lib/libc.a(doprnt.o)
 .mdebug.abi32  0xa0002514        0x0 /opt/microchip/xc32/v1.22/bin/../lib/gcc/pic32mx/4.5.2/../../../../pic32mx/lib/libc.a(_flsbuf_simple.o)
 .mdebug.abi32  0xa0002514        0x0 /opt/microchip/xc32/v1.22/bin/../lib/gcc/pic32mx/4.5.2/../../../../pic32mx/lib/libc.a(ctype.o)
 .mdebug.abi32  0xa0002514        0x0 /opt/microchip/xc32/v1.22/bin/../lib/gcc/pic32mx/4.5.2/../../../../pic32mx/lib/libc.a(powersf.o)
 .mdebug.abi32  0xa0002514        0x0 /opt/microchip/xc32/v1.22/bin/../lib/gcc/pic32mx/4.5.2/../../../../pic32mx/lib/libpic32.a(sbrk.o)
 .mdebug.abi32  0xa0002514        0x0 /opt/microchip/xc32/v1.22/bin/../lib/gcc/pic32mx/4.5.2/../../../../pic32mx/lib/libpic32.a(write.o)
 .mdebug.abi32  0xa0002514        0x0 /opt/microchip/xc32/v1.22/bin/../lib/gcc/pic32mx/4.5.2/../../../../pic32mx/lib/libe.a(_floatdisf.o)
 .mdebug.abi32  0xa0002514        0x0 /opt/microchip/xc32/v1.22/bin/../lib/gcc/pic32mx/4.5.2/libgcc.a(_floatundisf.o)
 .mdebug.abi32  0xa0002514        0x0 /opt/microchip/xc32/v1.22/bin/../lib/gcc/pic32mx/4.5.2/libgcc.a(_udivdi3.o)
 .mdebug.abi32  0xa0002514        0x0 /opt/microchip/xc32/v1.22/bin/../lib/gcc/pic32mx/4.5.2/libgcc.a(_umoddi3.o)
 .mdebug.abi32  0xa0002514        0x0 /opt/microchip/xc32/v1.22/bin/../lib/gcc/pic32mx/4.5.2/libgcc.a(floatunsisf.o)

.mdebug.abiN32
 *(.mdebug.abiN32)

.mdebug.abi64
 *(.mdebug.abi64)

.mdebug.abiO64
 *(.mdebug.abiO64)

.mdebug.eabi32
 *(.mdebug.eabi32)

.mdebug.eabi64
 *(.mdebug.eabi64)

.gcc_compiled_long32
 *(.gcc_compiled_long32)

.gcc_compiled_long64
 *(.gcc_compiled_long64)

.stab
 *(.stab)

.stabstr
 *(.stabstr)

.stab.excl
 *(.stab.excl)

.stab.exclstr
 *(.stab.exclstr)

.stab.index
 *(.stab.index)

.stab.indexstr
 *(.stab.indexstr)

.comment        0x00000000      0x1f8
 *(.comment)
 .comment       0x00000000       0x3c build/default/debug/contrib/ports/microchip/netif/ETHPIC32ExtPhyDP83848.o
                                 0x3d (size before relaxing)
 .comment       0x00000000       0x3d build/default/debug/contrib/ports/microchip/netif/xadapter.o
 .comment       0x00000000       0x3d build/default/debug/contrib/ports/microchip/netif/Microchip_eth.o
 .comment       0x00000000       0x3d build/default/debug/contrib/ports/microchip/netif/ETHPIC32ExtPhy.o
 .comment       0x00000000       0x3d build/default/debug/contrib/ports/microchip/sys_arch_raw.o
 .comment       0x00000000       0x3d build/default/debug/contrib/ports/microchip/sys_arch.o
 .comment       0x00000000       0x3d build/default/debug/contrib/ports/microchip/ethernetif.o
 .comment       0x00000000       0x3d build/default/debug/freertos/heap/heap_3.o
 .comment       0x00000000       0x3d build/default/debug/freertos/timers.o
 .comment       0x00000000       0x3d build/default/debug/freertos/port.o
 .comment       0x00000000       0x3d build/default/debug/freertos/list.o
 .comment       0x00000000       0x3d build/default/debug/freertos/tasks.o
 .comment       0x00000000       0x3d build/default/debug/freertos/croutine.o
 .comment       0x00000000       0x3d build/default/debug/freertos/queue.o
 .comment       0x00000000       0x3d build/default/debug/lwip-1.4.1/src/api/api_msg.o
 .comment       0x00000000       0x3d build/default/debug/lwip-1.4.1/src/api/netbuf.o
 .comment       0x00000000       0x3d build/default/debug/lwip-1.4.1/src/api/netdb.o
 .comment       0x00000000       0x3d build/default/debug/lwip-1.4.1/src/api/tcpip.o
 .comment       0x00000000       0x3d build/default/debug/lwip-1.4.1/src/api/sockets.o
 .comment       0x00000000       0x3d build/default/debug/lwip-1.4.1/src/api/netifapi.o
 .comment       0x00000000       0x3d build/default/debug/lwip-1.4.1/src/api/err.o
 .comment       0x00000000       0x3d build/default/debug/lwip-1.4.1/src/api/api_lib.o
 .comment       0x00000000       0x3d build/default/debug/lwip-1.4.1/src/core/ipv4/autoip.o
 .comment       0x00000000       0x3d build/default/debug/lwip-1.4.1/src/core/ipv4/ip_addr.o
 .comment       0x00000000       0x3d build/default/debug/lwip-1.4.1/src/core/ipv4/inet_chksum.o
 .comment       0x00000000       0x3d build/default/debug/lwip-1.4.1/src/core/ipv4/icmp.o
 .comment       0x00000000       0x3d build/default/debug/lwip-1.4.1/src/core/ipv4/inet.o
 .comment       0x00000000       0x3d build/default/debug/lwip-1.4.1/src/core/ipv4/ip_frag.o
 .comment       0x00000000       0x3d build/default/debug/lwip-1.4.1/src/core/ipv4/ip.o
 .comment       0x00000000       0x3d build/default/debug/lwip-1.4.1/src/core/ipv4/igmp.o
 .comment       0x00000000       0x3d build/default/debug/lwip-1.4.1/src/core/snmp/asn1_enc.o
 .comment       0x00000000       0x3d build/default/debug/lwip-1.4.1/src/core/snmp/msg_out.o
 .comment       0x00000000       0x3d build/default/debug/lwip-1.4.1/src/core/snmp/mib2.o
 .comment       0x00000000       0x3d build/default/debug/lwip-1.4.1/src/core/snmp/asn1_dec.o
 .comment       0x00000000       0x3d build/default/debug/lwip-1.4.1/src/core/snmp/msg_in.o
 .comment       0x00000000       0x3d build/default/debug/lwip-1.4.1/src/core/snmp/mib_structs.o
 .comment       0x00000000       0x3d build/default/debug/lwip-1.4.1/src/core/timers.o
 .comment       0x00000000       0x3d build/default/debug/lwip-1.4.1/src/core/memp.o
 .comment       0x00000000       0x3d build/default/debug/lwip-1.4.1/src/core/netif.o
 .comment       0x00000000       0x3d build/default/debug/lwip-1.4.1/src/core/pbuf.o
 .comment       0x00000000       0x3d build/default/debug/lwip-1.4.1/src/core/mem.o
 .comment       0x00000000       0x3d build/default/debug/lwip-1.4.1/src/core/dhcp.o
 .comment       0x00000000       0x3d build/default/debug/lwip-1.4.1/src/core/tcp_out.o
 .comment       0x00000000       0x3d build/default/debug/lwip-1.4.1/src/core/stats.o
 .comment       0x00000000       0x3d build/default/debug/lwip-1.4.1/src/core/tcp_in.o
 .comment       0x00000000       0x3d build/default/debug/lwip-1.4.1/src/core/def.o
 .comment       0x00000000       0x3d build/default/debug/lwip-1.4.1/src/core/raw.o
 .comment       0x00000000       0x3d build/default/debug/lwip-1.4.1/src/core/dns.o
 .comment       0x00000000       0x3d build/default/debug/lwip-1.4.1/src/core/udp.o
 .comment       0x00000000       0x3d build/default/debug/lwip-1.4.1/src/core/init.o
 .comment       0x00000000       0x3d build/default/debug/lwip-1.4.1/src/core/sys.o
 .comment       0x00000000       0x3d build/default/debug/lwip-1.4.1/src/core/tcp.o
 .comment       0x00000000       0x3d build/default/debug/lwip-1.4.1/src/netif/ppp/ppp_oe.o
 .comment       0x00000000       0x3d build/default/debug/lwip-1.4.1/src/netif/ppp/chap.o
 .comment       0x00000000       0x3d build/default/debug/lwip-1.4.1/src/netif/ppp/vj.o
 .comment       0x00000000       0x3d build/default/debug/lwip-1.4.1/src/netif/ppp/ipcp.o
 .comment       0x00000000       0x3d build/default/debug/lwip-1.4.1/src/netif/ppp/fsm.o
 .comment       0x00000000       0x3d build/default/debug/lwip-1.4.1/src/netif/ppp/md5.o
 .comment       0x00000000       0x3d build/default/debug/lwip-1.4.1/src/netif/ppp/magic.o
 .comment       0x00000000       0x3d build/default/debug/lwip-1.4.1/src/netif/ppp/auth.o
 .comment       0x00000000       0x3d build/default/debug/lwip-1.4.1/src/netif/ppp/chpms.o
 .comment       0x00000000       0x3d build/default/debug/lwip-1.4.1/src/netif/ppp/pap.o
 .comment       0x00000000       0x3d build/default/debug/lwip-1.4.1/src/netif/ppp/randm.o
 .comment       0x00000000       0x3d build/default/debug/lwip-1.4.1/src/netif/ppp/lcp.o
 .comment       0x00000000       0x3d build/default/debug/lwip-1.4.1/src/netif/ppp/ppp.o
 .comment       0x00000000       0x3d build/default/debug/lwip-1.4.1/src/netif/etharp.o
 .comment       0x00000000       0x3d build/default/debug/lwip-1.4.1/src/netif/ethernetif.o
 .comment       0x00000000       0x3d build/default/debug/lwip-1.4.1/src/netif/slipif.o
 .comment       0x00000000       0x3d build/default/debug/src/main.o
 .comment       0x00000000       0x3d build/default/debug/src/ip_lwip.o
 .comment       0x00000000       0x3d build/default/debug/src/echo.o
 .comment       0x0000003c       0x3c /opt/microchip/xc32/v1.22/bin/../lib/gcc/pic32mx/4.5.2/../../../../pic32mx/lib/libmchp_peripheral.a(read_core_timer_lib.o)
                                 0x3d (size before relaxing)
 .comment       0x00000000       0x3d /opt/microchip/xc32/v1.22/bin/../lib/gcc/pic32mx/4.5.2/../../../../pic32mx/lib/libmchp_peripheral_32MX795F512L.a(eth_ack_packet_lib.o)
 .comment       0x00000000       0x3d /opt/microchip/xc32/v1.22/bin/../lib/gcc/pic32mx/4.5.2/../../../../pic32mx/lib/libmchp_peripheral_32MX795F512L.a(eth_descriptors_add_lib.o)
 .comment       0x00000000       0x3d /opt/microchip/xc32/v1.22/bin/../lib/gcc/pic32mx/4.5.2/../../../../pic32mx/lib/libmchp_peripheral_32MX795F512L.a(eth_init_lib.o)
 .comment       0x00000000       0x3d /opt/microchip/xc32/v1.22/bin/../lib/gcc/pic32mx/4.5.2/../../../../pic32mx/lib/libmchp_peripheral_32MX795F512L.a(eth_mac_open_lib.o)
 .comment       0x00000000       0x3d /opt/microchip/xc32/v1.22/bin/../lib/gcc/pic32mx/4.5.2/../../../../pic32mx/lib/libmchp_peripheral_32MX795F512L.a(eth_mac_set_address_max_lib.o)
 .comment       0x00000000       0x3d /opt/microchip/xc32/v1.22/bin/../lib/gcc/pic32mx/4.5.2/../../../../pic32mx/lib/libmchp_peripheral_32MX795F512L.a(eth_rx_buffers_append_lib.o)
 .comment       0x00000000       0x3d /opt/microchip/xc32/v1.22/bin/../lib/gcc/pic32mx/4.5.2/../../../../pic32mx/lib/libmchp_peripheral_32MX795F512L.a(eth_rx_filters_lib.o)
 .comment       0x00000000       0x3d /opt/microchip/xc32/v1.22/bin/../lib/gcc/pic32mx/4.5.2/../../../../pic32mx/lib/libmchp_peripheral_32MX795F512L.a(eth_rx_get_packet_lib.o)
 .comment       0x00000000       0x3d /opt/microchip/xc32/v1.22/bin/../lib/gcc/pic32mx/4.5.2/../../../../pic32mx/lib/libmchp_peripheral_32MX795F512L.a(eth_rx_set_buffer_size_lib.o)
 .comment       0x00000000       0x3d /opt/microchip/xc32/v1.22/bin/../lib/gcc/pic32mx/4.5.2/../../../../pic32mx/lib/libmchp_peripheral_32MX795F512L.a(eth_tx_packet_lib.o)
 .comment       0x00000000       0x3d /opt/microchip/xc32/v1.22/bin/../lib/gcc/pic32mx/4.5.2/../../../../pic32mx/lib/libmchp_peripheral_32MX795F512L.a(_eth_append_busy_list_lib.o)
 .comment       0x00000000       0x3d /opt/microchip/xc32/v1.22/bin/../lib/gcc/pic32mx/4.5.2/../../../../pic32mx/lib/libmchp_peripheral_32MX795F512L.a(eth_miim_access.o)
 .comment       0x00000000       0x3d /opt/microchip/xc32/v1.22/bin/../lib/gcc/pic32mx/4.5.2/../../../../pic32mx/lib/libmchp_peripheral_32MX795F512L.a(int_tbl_lib.o)
 .comment       0x00000000       0x3d /opt/microchip/xc32/v1.22/bin/../lib/gcc/pic32mx/4.5.2/../../../../pic32mx/lib/libmchp_peripheral_32MX795F512L.a(port_set_pins_digital_in_lib.o)
 .comment       0x00000000       0x3d /opt/microchip/xc32/v1.22/bin/../lib/gcc/pic32mx/4.5.2/../../../../pic32mx/lib/libmchp_peripheral_32MX795F512L.a(port_set_pins_digital_out_lib.o)
 .comment       0x00000000       0x3d /opt/microchip/xc32/v1.22/bin/../lib/gcc/pic32mx/4.5.2/../../../../pic32mx/lib/libmchp_peripheral_32MX795F512L.a(_ports_tbl_libp.o)
 .comment       0x00000078       0x18 /opt/microchip/xc32/v1.22/bin/../lib/gcc/pic32mx/4.5.2/../../../../pic32mx/lib/libpic32.a(memcmp.o)
                                 0x19 (size before relaxing)
 .comment       0x00000090       0x18 /opt/microchip/xc32/v1.22/bin/../lib/gcc/pic32mx/4.5.2/../../../../pic32mx/lib/libpic32.a(memset.o)
                                 0x19 (size before relaxing)
 .comment       0x000000a8       0x19 /opt/microchip/xc32/v1.22/bin/../lib/gcc/pic32mx/4.5.2/../../../../pic32mx/lib/libpic32.a(strlen.o)
                                 0x1a (size before relaxing)
 .comment       0x00000000       0x3d /opt/microchip/xc32/v1.22/bin/../lib/gcc/pic32mx/4.5.2/../../../../pic32mx/lib/libpic32.a(default-bootstrap-exception-handler.o)
 .comment       0x00000000       0x3d /opt/microchip/xc32/v1.22/bin/../lib/gcc/pic32mx/4.5.2/../../../../pic32mx/lib/libpic32.a(default-on-reset.o)
 .comment       0x00000000       0x3d /opt/microchip/xc32/v1.22/bin/../lib/gcc/pic32mx/4.5.2/../../../../pic32mx/lib/libpic32.a(default-on-bootstrap.o)
 .comment       0x00000000       0x3d /opt/microchip/xc32/v1.22/bin/../lib/gcc/pic32mx/4.5.2/../../../../pic32mx/lib/libpic32.a(default-general-exception-handler.o)
 .comment       0x00000000       0x3d /opt/microchip/xc32/v1.22/bin/../lib/gcc/pic32mx/4.5.2/../../../../pic32mx/lib/libpic32.a(defaultinterrupt.o)
 .comment       0x00000000       0x3d /opt/microchip/xc32/v1.22/bin/../lib/gcc/pic32mx/4.5.2/../../../../pic32mx/lib/libdebug.a(db_utils.o)
 .comment       0x00000000       0x3d /opt/microchip/xc32/v1.22/bin/../lib/gcc/pic32mx/4.5.2/../../../../pic32mx/lib/libpic32.a(xc32_uart.o)
 .comment       0x00000000       0x3d /opt/microchip/xc32/v1.22/bin/../lib/gcc/pic32mx/4.5.2/../../../../pic32mx/lib/libc.a(_iob.o)
 .comment       0x00000000       0x3d /opt/microchip/xc32/v1.22/bin/../lib/gcc/pic32mx/4.5.2/../../../../pic32mx/lib/libc.a(calloc.o)
 .comment       0x00000000       0x3d /opt/microchip/xc32/v1.22/bin/../lib/gcc/pic32mx/4.5.2/../../../../pic32mx/lib/libc.a(malloc.o)
 .comment       0x00000000       0x3d /opt/microchip/xc32/v1.22/bin/../lib/gcc/pic32mx/4.5.2/../../../../pic32mx/lib/libc.a(puts.o)
 .comment       0x00000000       0x3d /opt/microchip/xc32/v1.22/bin/../lib/gcc/pic32mx/4.5.2/../../../../pic32mx/lib/libc.a(rand.o)
 .comment       0x00000000       0x3d /opt/microchip/xc32/v1.22/bin/../lib/gcc/pic32mx/4.5.2/../../../../pic32mx/lib/libc.a(setbuf.o)
 .comment       0x00000000       0x3d /opt/microchip/xc32/v1.22/bin/../lib/gcc/pic32mx/4.5.2/../../../../pic32mx/lib/libc.a(strncmp.o)
 .comment       0x00000000       0x3d /opt/microchip/xc32/v1.22/bin/../lib/gcc/pic32mx/4.5.2/../../../../pic32mx/lib/libc.a(printf_cdnopsuxX.eo)
 .comment       0x00000000       0x3d /opt/microchip/xc32/v1.22/bin/../lib/gcc/pic32mx/4.5.2/../../../../pic32mx/lib/libc.a(printf.o)
 .comment       0x00000000       0x3d /opt/microchip/xc32/v1.22/bin/../lib/gcc/pic32mx/4.5.2/../../../../pic32mx/lib/libc.a(_fputc_simple.o)
 .comment       0x00000000       0x3d /opt/microchip/xc32/v1.22/bin/../lib/gcc/pic32mx/4.5.2/../../../../pic32mx/lib/libc.a(buf.o)
 .comment       0x00000000       0x3d /opt/microchip/xc32/v1.22/bin/../lib/gcc/pic32mx/4.5.2/../../../../pic32mx/lib/libc.a(errno.o)
 .comment       0x00000000       0x3d /opt/microchip/xc32/v1.22/bin/../lib/gcc/pic32mx/4.5.2/../../../../pic32mx/lib/libc.a(doprnt_cdnopsuxX.eo)
 .comment       0x00000000       0x3d /opt/microchip/xc32/v1.22/bin/../lib/gcc/pic32mx/4.5.2/../../../../pic32mx/lib/libc.a(doprnt.o)
 .comment       0x00000000       0x3d /opt/microchip/xc32/v1.22/bin/../lib/gcc/pic32mx/4.5.2/../../../../pic32mx/lib/libc.a(_flsbuf_simple.o)
 .comment       0x000000c1       0x4e /opt/microchip/xc32/v1.22/bin/../lib/gcc/pic32mx/4.5.2/../../../../pic32mx/lib/libc.a(ctype.o)
                                 0x8b (size before relaxing)
 .comment       0x00000000       0x3d /opt/microchip/xc32/v1.22/bin/../lib/gcc/pic32mx/4.5.2/../../../../pic32mx/lib/libc.a(powersf.o)
 .comment       0x0000010f       0x4b /opt/microchip/xc32/v1.22/bin/../lib/gcc/pic32mx/4.5.2/../../../../pic32mx/lib/libpic32.a(sbrk.o)
                                 0x88 (size before relaxing)
 .comment       0x00000000       0x3d /opt/microchip/xc32/v1.22/bin/../lib/gcc/pic32mx/4.5.2/../../../../pic32mx/lib/libpic32.a(write.o)
 .comment       0x0000015a       0x9e /opt/microchip/xc32/v1.22/bin/../lib/gcc/pic32mx/4.5.2/../../../../pic32mx/lib/libe.a(_floatdisf.o)
                                 0xdb (size before relaxing)
 .comment       0x00000000       0x3d /opt/microchip/xc32/v1.22/bin/../lib/gcc/pic32mx/4.5.2/libgcc.a(_floatundisf.o)
 .comment       0x00000000       0x3d /opt/microchip/xc32/v1.22/bin/../lib/gcc/pic32mx/4.5.2/libgcc.a(_udivdi3.o)
 .comment       0x00000000       0x3d /opt/microchip/xc32/v1.22/bin/../lib/gcc/pic32mx/4.5.2/libgcc.a(_umoddi3.o)
 .comment       0x00000000       0x3d /opt/microchip/xc32/v1.22/bin/../lib/gcc/pic32mx/4.5.2/libgcc.a(floatunsisf.o)

.debug
 *(.debug)

.line
 *(.line)

.debug_srcinfo
 *(.debug_srcinfo)

.debug_sfnames
 *(.debug_sfnames)

.debug_aranges  0x00000000      0xe58
 *(.debug_aranges)
 .debug_aranges
                0x00000000       0x38 build/default/debug/contrib/ports/microchip/netif/ETHPIC32ExtPhyDP83848.o
 .debug_aranges
                0x00000038       0x38 build/default/debug/contrib/ports/microchip/netif/Microchip_eth.o
 .debug_aranges
                0x00000070       0x38 build/default/debug/contrib/ports/microchip/netif/ETHPIC32ExtPhy.o
 .debug_aranges
                0x000000a8       0x38 build/default/debug/contrib/ports/microchip/sys_arch_raw.o
 .debug_aranges
                0x000000e0       0x38 build/default/debug/contrib/ports/microchip/sys_arch.o
 .debug_aranges
                0x00000118       0x38 build/default/debug/contrib/ports/microchip/ethernetif.o
 .debug_aranges
                0x00000150       0x38 build/default/debug/freertos/heap/heap_3.o
 .debug_aranges
                0x00000188       0x38 build/default/debug/freertos/timers.o
 .debug_aranges
                0x000001c0       0x38 build/default/debug/freertos/port.o
 .debug_aranges
                0x000001f8       0x20 build/default/debug/freertos/port_asm.o
 .debug_aranges
                0x00000218       0x38 build/default/debug/freertos/list.o
 .debug_aranges
                0x00000250       0x38 build/default/debug/freertos/tasks.o
 .debug_aranges
                0x00000288       0x38 build/default/debug/freertos/croutine.o
 .debug_aranges
                0x000002c0       0x38 build/default/debug/freertos/queue.o
 .debug_aranges
                0x000002f8       0x38 build/default/debug/lwip-1.4.1/src/api/api_msg.o
 .debug_aranges
                0x00000330       0x20 build/default/debug/lwip-1.4.1/src/api/netbuf.o
 .debug_aranges
                0x00000350       0x38 build/default/debug/lwip-1.4.1/src/api/tcpip.o
 .debug_aranges
                0x00000388       0x38 build/default/debug/lwip-1.4.1/src/api/sockets.o
 .debug_aranges
                0x000003c0       0x38 build/default/debug/lwip-1.4.1/src/api/api_lib.o
 .debug_aranges
                0x000003f8       0x20 build/default/debug/lwip-1.4.1/src/core/ipv4/ip_addr.o
 .debug_aranges
                0x00000418       0x20 build/default/debug/lwip-1.4.1/src/core/ipv4/inet_chksum.o
 .debug_aranges
                0x00000438       0x20 build/default/debug/lwip-1.4.1/src/core/ipv4/icmp.o
 .debug_aranges
                0x00000458       0x20 build/default/debug/lwip-1.4.1/src/core/ipv4/ip_frag.o
 .debug_aranges
                0x00000478       0x20 build/default/debug/lwip-1.4.1/src/core/ipv4/ip.o
 .debug_aranges
                0x00000498       0x38 build/default/debug/lwip-1.4.1/src/core/timers.o
 .debug_aranges
                0x000004d0       0x38 build/default/debug/lwip-1.4.1/src/core/memp.o
 .debug_aranges
                0x00000508       0x20 build/default/debug/lwip-1.4.1/src/core/netif.o
 .debug_aranges
                0x00000528       0x38 build/default/debug/lwip-1.4.1/src/core/pbuf.o
 .debug_aranges
                0x00000560       0x38 build/default/debug/lwip-1.4.1/src/core/mem.o
 .debug_aranges
                0x00000598       0x20 build/default/debug/lwip-1.4.1/src/core/dhcp.o
 .debug_aranges
                0x000005b8       0x20 build/default/debug/lwip-1.4.1/src/core/tcp_out.o
 .debug_aranges
                0x000005d8       0x20 build/default/debug/lwip-1.4.1/src/core/tcp_in.o
 .debug_aranges
                0x000005f8       0x20 build/default/debug/lwip-1.4.1/src/core/def.o
 .debug_aranges
                0x00000618       0x20 build/default/debug/lwip-1.4.1/src/core/udp.o
 .debug_aranges
                0x00000638       0x38 build/default/debug/lwip-1.4.1/src/core/init.o
 .debug_aranges
                0x00000670       0x38 build/default/debug/lwip-1.4.1/src/core/sys.o
 .debug_aranges
                0x000006a8       0x20 build/default/debug/lwip-1.4.1/src/core/tcp.o
 .debug_aranges
                0x000006c8       0x20 build/default/debug/lwip-1.4.1/src/netif/etharp.o
 .debug_aranges
                0x000006e8       0x38 build/default/debug/src/main.o
 .debug_aranges
                0x00000720       0x38 build/default/debug/src/ip_lwip.o
 .debug_aranges
                0x00000758       0x38 build/default/debug/src/echo.o
 .debug_aranges
                0x00000790       0x20 /opt/microchip/xc32/v1.22/bin/../lib/gcc/pic32mx/4.5.2/../../../../pic32mx/lib/libmchp_peripheral.a(read_core_timer_lib.o)
 .debug_aranges
                0x000007b0       0x48 /opt/microchip/xc32/v1.22/bin/../lib/gcc/pic32mx/4.5.2/../../../../pic32mx/lib/libmchp_peripheral_32MX795F512L.a(eth_ack_packet_lib.o)
 .debug_aranges
                0x000007f8       0x28 /opt/microchip/xc32/v1.22/bin/../lib/gcc/pic32mx/4.5.2/../../../../pic32mx/lib/libmchp_peripheral_32MX795F512L.a(eth_descriptors_add_lib.o)
 .debug_aranges
                0x00000820       0x20 /opt/microchip/xc32/v1.22/bin/../lib/gcc/pic32mx/4.5.2/../../../../pic32mx/lib/libmchp_peripheral_32MX795F512L.a(eth_init_lib.o)
 .debug_aranges
                0x00000840       0x20 /opt/microchip/xc32/v1.22/bin/../lib/gcc/pic32mx/4.5.2/../../../../pic32mx/lib/libmchp_peripheral_32MX795F512L.a(eth_mac_open_lib.o)
 .debug_aranges
                0x00000860       0x30 /opt/microchip/xc32/v1.22/bin/../lib/gcc/pic32mx/4.5.2/../../../../pic32mx/lib/libmchp_peripheral_32MX795F512L.a(eth_mac_set_address_max_lib.o)
 .debug_aranges
                0x00000890       0x20 /opt/microchip/xc32/v1.22/bin/../lib/gcc/pic32mx/4.5.2/../../../../pic32mx/lib/libmchp_peripheral_32MX795F512L.a(eth_rx_buffers_append_lib.o)
 .debug_aranges
                0x000008b0       0x48 /opt/microchip/xc32/v1.22/bin/../lib/gcc/pic32mx/4.5.2/../../../../pic32mx/lib/libmchp_peripheral_32MX795F512L.a(eth_rx_filters_lib.o)
 .debug_aranges
                0x000008f8       0x28 /opt/microchip/xc32/v1.22/bin/../lib/gcc/pic32mx/4.5.2/../../../../pic32mx/lib/libmchp_peripheral_32MX795F512L.a(eth_rx_get_packet_lib.o)
 .debug_aranges
                0x00000920       0x20 /opt/microchip/xc32/v1.22/bin/../lib/gcc/pic32mx/4.5.2/../../../../pic32mx/lib/libmchp_peripheral_32MX795F512L.a(eth_rx_set_buffer_size_lib.o)
 .debug_aranges
                0x00000940       0x48 /opt/microchip/xc32/v1.22/bin/../lib/gcc/pic32mx/4.5.2/../../../../pic32mx/lib/libmchp_peripheral_32MX795F512L.a(eth_tx_packet_lib.o)
 .debug_aranges
                0x00000988       0x20 /opt/microchip/xc32/v1.22/bin/../lib/gcc/pic32mx/4.5.2/../../../../pic32mx/lib/libmchp_peripheral_32MX795F512L.a(_eth_append_busy_list_lib.o)
 .debug_aranges
                0x000009a8       0x48 /opt/microchip/xc32/v1.22/bin/../lib/gcc/pic32mx/4.5.2/../../../../pic32mx/lib/libmchp_peripheral_32MX795F512L.a(eth_miim_access.o)
 .debug_aranges
                0x000009f0       0x60 /opt/microchip/xc32/v1.22/bin/../lib/gcc/pic32mx/4.5.2/../../../../pic32mx/lib/libmchp_peripheral_32MX795F512L.a(int_tbl_lib.o)
 .debug_aranges
                0x00000a50       0x20 /opt/microchip/xc32/v1.22/bin/../lib/gcc/pic32mx/4.5.2/../../../../pic32mx/lib/libmchp_peripheral_32MX795F512L.a(port_set_pins_digital_in_lib.o)
 .debug_aranges
                0x00000a70       0x20 /opt/microchip/xc32/v1.22/bin/../lib/gcc/pic32mx/4.5.2/../../../../pic32mx/lib/libmchp_peripheral_32MX795F512L.a(port_set_pins_digital_out_lib.o)
 .debug_aranges
                0x00000a90       0x20 /opt/microchip/xc32/v1.22/bin/../lib/gcc/pic32mx/4.5.2/../../../../pic32mx/lib/libpic32.a(default-bootstrap-exception-handler.o)
 .debug_aranges
                0x00000ab0       0x20 /opt/microchip/xc32/v1.22/bin/../lib/gcc/pic32mx/4.5.2/../../../../pic32mx/lib/libpic32.a(default-on-reset.o)
 .debug_aranges
                0x00000ad0       0x20 /opt/microchip/xc32/v1.22/bin/../lib/gcc/pic32mx/4.5.2/../../../../pic32mx/lib/libpic32.a(default-on-bootstrap.o)
 .debug_aranges
                0x00000af0       0x20 /opt/microchip/xc32/v1.22/bin/../lib/gcc/pic32mx/4.5.2/../../../../pic32mx/lib/libpic32.a(default-general-exception-handler.o)
 .debug_aranges
                0x00000b10       0x20 /opt/microchip/xc32/v1.22/bin/../lib/gcc/pic32mx/4.5.2/../../../../pic32mx/lib/libpic32.a(defaultinterrupt.o)
 .debug_aranges
                0x00000b30       0x48 /opt/microchip/xc32/v1.22/bin/../lib/gcc/pic32mx/4.5.2/../../../../pic32mx/lib/libdebug.a(db_utils.o)
 .debug_aranges
                0x00000b78       0x20 /opt/microchip/xc32/v1.22/bin/../lib/gcc/pic32mx/4.5.2/../../../../pic32mx/lib/libc.a(calloc.o)
 .debug_aranges
                0x00000b98       0x30 /opt/microchip/xc32/v1.22/bin/../lib/gcc/pic32mx/4.5.2/../../../../pic32mx/lib/libc.a(malloc.o)
 .debug_aranges
                0x00000bc8       0x28 /opt/microchip/xc32/v1.22/bin/../lib/gcc/pic32mx/4.5.2/../../../../pic32mx/lib/libc.a(puts.o)
 .debug_aranges
                0x00000bf0       0x28 /opt/microchip/xc32/v1.22/bin/../lib/gcc/pic32mx/4.5.2/../../../../pic32mx/lib/libc.a(rand.o)
 .debug_aranges
                0x00000c18       0x28 /opt/microchip/xc32/v1.22/bin/../lib/gcc/pic32mx/4.5.2/../../../../pic32mx/lib/libc.a(setbuf.o)
 .debug_aranges
                0x00000c40       0x20 /opt/microchip/xc32/v1.22/bin/../lib/gcc/pic32mx/4.5.2/../../../../pic32mx/lib/libc.a(strncmp.o)
 .debug_aranges
                0x00000c60       0x20 /opt/microchip/xc32/v1.22/bin/../lib/gcc/pic32mx/4.5.2/../../../../pic32mx/lib/libc.a(printf_cdnopsuxX.eo)
 .debug_aranges
                0x00000c80       0x20 /opt/microchip/xc32/v1.22/bin/../lib/gcc/pic32mx/4.5.2/../../../../pic32mx/lib/libc.a(printf.o)
 .debug_aranges
                0x00000ca0       0x20 /opt/microchip/xc32/v1.22/bin/../lib/gcc/pic32mx/4.5.2/../../../../pic32mx/lib/libc.a(_fputc_simple.o)
 .debug_aranges
                0x00000cc0       0x28 /opt/microchip/xc32/v1.22/bin/../lib/gcc/pic32mx/4.5.2/../../../../pic32mx/lib/libc.a(buf.o)
 .debug_aranges
                0x00000ce8       0x20 /opt/microchip/xc32/v1.22/bin/../lib/gcc/pic32mx/4.5.2/../../../../pic32mx/lib/libc.a(doprnt_cdnopsuxX.eo)
 .debug_aranges
                0x00000d08       0x30 /opt/microchip/xc32/v1.22/bin/../lib/gcc/pic32mx/4.5.2/../../../../pic32mx/lib/libc.a(doprnt.o)
 .debug_aranges
                0x00000d38       0x20 /opt/microchip/xc32/v1.22/bin/../lib/gcc/pic32mx/4.5.2/../../../../pic32mx/lib/libc.a(_flsbuf_simple.o)
 .debug_aranges
                0x00000d58       0x40 /opt/microchip/xc32/v1.22/bin/../lib/gcc/pic32mx/4.5.2/../../../../pic32mx/lib/libpic32.a(sbrk.o)
 .debug_aranges
                0x00000d98       0x20 /opt/microchip/xc32/v1.22/bin/../lib/gcc/pic32mx/4.5.2/../../../../pic32mx/lib/libpic32.a(write.o)
 .debug_aranges
                0x00000db8       0x20 /opt/microchip/xc32/v1.22/bin/../lib/gcc/pic32mx/4.5.2/../../../../pic32mx/lib/libe.a(_floatdisf.o)
 .debug_aranges
                0x00000dd8       0x20 /opt/microchip/xc32/v1.22/bin/../lib/gcc/pic32mx/4.5.2/libgcc.a(_floatundisf.o)
 .debug_aranges
                0x00000df8       0x20 /opt/microchip/xc32/v1.22/bin/../lib/gcc/pic32mx/4.5.2/libgcc.a(_udivdi3.o)
 .debug_aranges
                0x00000e18       0x20 /opt/microchip/xc32/v1.22/bin/../lib/gcc/pic32mx/4.5.2/libgcc.a(_umoddi3.o)
 .debug_aranges
                0x00000e38       0x20 /opt/microchip/xc32/v1.22/bin/../lib/gcc/pic32mx/4.5.2/libgcc.a(floatunsisf.o)

.debug_pubnames
                0x00000000     0x3408
 *(.debug_pubnames)
 .debug_pubnames
                0x00000000       0xa2 build/default/debug/contrib/ports/microchip/netif/ETHPIC32ExtPhyDP83848.o
 .debug_pubnames
                0x000000a2       0xe7 build/default/debug/contrib/ports/microchip/netif/Microchip_eth.o
 .debug_pubnames
                0x00000189      0x147 build/default/debug/contrib/ports/microchip/netif/ETHPIC32ExtPhy.o
 .debug_pubnames
                0x000002d0       0x83 build/default/debug/contrib/ports/microchip/sys_arch_raw.o
 .debug_pubnames
                0x00000353      0x1aa build/default/debug/contrib/ports/microchip/sys_arch.o
 .debug_pubnames
                0x000004fd       0x9c build/default/debug/contrib/ports/microchip/ethernetif.o
 .debug_pubnames
                0x00000599       0x68 build/default/debug/freertos/heap/heap_3.o
 .debug_pubnames
                0x00000601       0xd3 build/default/debug/freertos/timers.o
 .debug_pubnames
                0x000006d4      0x224 build/default/debug/freertos/port.o
 .debug_pubnames
                0x000008f8       0xa9 build/default/debug/freertos/list.o
 .debug_pubnames
                0x000009a1      0x6d8 build/default/debug/freertos/tasks.o
 .debug_pubnames
                0x00001079      0x22b build/default/debug/freertos/croutine.o
 .debug_pubnames
                0x000012a4      0x242 build/default/debug/freertos/queue.o
 .debug_pubnames
                0x000014e6      0x106 build/default/debug/lwip-1.4.1/src/api/api_msg.o
 .debug_pubnames
                0x000015ec       0xa5 build/default/debug/lwip-1.4.1/src/api/netbuf.o
 .debug_pubnames
                0x00001691      0x137 build/default/debug/lwip-1.4.1/src/api/tcpip.o
 .debug_pubnames
                0x000017c8      0x1a9 build/default/debug/lwip-1.4.1/src/api/sockets.o
 .debug_pubnames
                0x00001971      0x1a9 build/default/debug/lwip-1.4.1/src/api/api_lib.o
 .debug_pubnames
                0x00001b1a       0xae build/default/debug/lwip-1.4.1/src/core/ipv4/ip_addr.o
 .debug_pubnames
                0x00001bc8       0x6d build/default/debug/lwip-1.4.1/src/core/ipv4/inet_chksum.o
 .debug_pubnames
                0x00001c35       0x4e build/default/debug/lwip-1.4.1/src/core/ipv4/icmp.o
 .debug_pubnames
                0x00001c83       0x3c build/default/debug/lwip-1.4.1/src/core/ipv4/ip_frag.o
 .debug_pubnames
                0x00001cbf       0x9d build/default/debug/lwip-1.4.1/src/core/ipv4/ip.o
 .debug_pubnames
                0x00001d5c       0xb2 build/default/debug/lwip-1.4.1/src/core/timers.o
 .debug_pubnames
                0x00001e0e       0x75 build/default/debug/lwip-1.4.1/src/core/memp.o
 .debug_pubnames
                0x00001e83      0x143 build/default/debug/lwip-1.4.1/src/core/netif.o
 .debug_pubnames
                0x00001fc6      0x188 build/default/debug/lwip-1.4.1/src/core/pbuf.o
 .debug_pubnames
                0x0000214e       0x9b build/default/debug/lwip-1.4.1/src/core/mem.o
 .debug_pubnames
                0x000021e9       0xf5 build/default/debug/lwip-1.4.1/src/core/dhcp.o
 .debug_pubnames
                0x000022de       0xdb build/default/debug/lwip-1.4.1/src/core/tcp_out.o
 .debug_pubnames
                0x000023b9       0x32 build/default/debug/lwip-1.4.1/src/core/tcp_in.o
 .debug_pubnames
                0x000023eb       0x4e build/default/debug/lwip-1.4.1/src/core/def.o
 .debug_pubnames
                0x00002439       0xc0 build/default/debug/lwip-1.4.1/src/core/udp.o
 .debug_pubnames
                0x000024f9       0x7e build/default/debug/lwip-1.4.1/src/core/init.o
 .debug_pubnames
                0x00002577       0x58 build/default/debug/lwip-1.4.1/src/core/sys.o
 .debug_pubnames
                0x000025cf      0x2fa build/default/debug/lwip-1.4.1/src/core/tcp.o
 .debug_pubnames
                0x000028c9       0xb5 build/default/debug/lwip-1.4.1/src/netif/etharp.o
 .debug_pubnames
                0x0000297e       0x5d build/default/debug/src/main.o
 .debug_pubnames
                0x000029db       0x85 build/default/debug/src/ip_lwip.o
 .debug_pubnames
                0x00002a60       0xa6 build/default/debug/src/echo.o
 .debug_pubnames
                0x00002b06       0x24 /opt/microchip/xc32/v1.22/bin/../lib/gcc/pic32mx/4.5.2/../../../../pic32mx/lib/libmchp_peripheral.a(read_core_timer_lib.o)
 .debug_pubnames
                0x00002b2a       0x80 /opt/microchip/xc32/v1.22/bin/../lib/gcc/pic32mx/4.5.2/../../../../pic32mx/lib/libmchp_peripheral_32MX795F512L.a(eth_ack_packet_lib.o)
 .debug_pubnames
                0x00002baa       0x42 /opt/microchip/xc32/v1.22/bin/../lib/gcc/pic32mx/4.5.2/../../../../pic32mx/lib/libmchp_peripheral_32MX795F512L.a(eth_descriptors_add_lib.o)
 .debug_pubnames
                0x00002bec       0x1e /opt/microchip/xc32/v1.22/bin/../lib/gcc/pic32mx/4.5.2/../../../../pic32mx/lib/libmchp_peripheral_32MX795F512L.a(eth_init_lib.o)
 .debug_pubnames
                0x00002c0a       0x21 /opt/microchip/xc32/v1.22/bin/../lib/gcc/pic32mx/4.5.2/../../../../pic32mx/lib/libmchp_peripheral_32MX795F512L.a(eth_mac_open_lib.o)
 .debug_pubnames
                0x00002c2b       0x52 /opt/microchip/xc32/v1.22/bin/../lib/gcc/pic32mx/4.5.2/../../../../pic32mx/lib/libmchp_peripheral_32MX795F512L.a(eth_mac_set_address_max_lib.o)
 .debug_pubnames
                0x00002c7d       0x29 /opt/microchip/xc32/v1.22/bin/../lib/gcc/pic32mx/4.5.2/../../../../pic32mx/lib/libmchp_peripheral_32MX795F512L.a(eth_rx_buffers_append_lib.o)
 .debug_pubnames
                0x00002ca6       0x92 /opt/microchip/xc32/v1.22/bin/../lib/gcc/pic32mx/4.5.2/../../../../pic32mx/lib/libmchp_peripheral_32MX795F512L.a(eth_rx_filters_lib.o)
 .debug_pubnames
                0x00002d38       0x38 /opt/microchip/xc32/v1.22/bin/../lib/gcc/pic32mx/4.5.2/../../../../pic32mx/lib/libmchp_peripheral_32MX795F512L.a(eth_rx_get_packet_lib.o)
 .debug_pubnames
                0x00002d70       0x29 /opt/microchip/xc32/v1.22/bin/../lib/gcc/pic32mx/4.5.2/../../../../pic32mx/lib/libmchp_peripheral_32MX795F512L.a(eth_rx_set_buffer_size_lib.o)
 .debug_pubnames
                0x00002d99       0x66 /opt/microchip/xc32/v1.22/bin/../lib/gcc/pic32mx/4.5.2/../../../../pic32mx/lib/libmchp_peripheral_32MX795F512L.a(eth_tx_packet_lib.o)
 .debug_pubnames
                0x00002dff       0x29 /opt/microchip/xc32/v1.22/bin/../lib/gcc/pic32mx/4.5.2/../../../../pic32mx/lib/libmchp_peripheral_32MX795F512L.a(_eth_append_busy_list_lib.o)
 .debug_pubnames
                0x00002e28       0x90 /opt/microchip/xc32/v1.22/bin/../lib/gcc/pic32mx/4.5.2/../../../../pic32mx/lib/libmchp_peripheral_32MX795F512L.a(eth_miim_access.o)
 .debug_pubnames
                0x00002eb8       0xca /opt/microchip/xc32/v1.22/bin/../lib/gcc/pic32mx/4.5.2/../../../../pic32mx/lib/libmchp_peripheral_32MX795F512L.a(int_tbl_lib.o)
 .debug_pubnames
                0x00002f82       0x2b /opt/microchip/xc32/v1.22/bin/../lib/gcc/pic32mx/4.5.2/../../../../pic32mx/lib/libmchp_peripheral_32MX795F512L.a(port_set_pins_digital_in_lib.o)
 .debug_pubnames
                0x00002fad       0x2c /opt/microchip/xc32/v1.22/bin/../lib/gcc/pic32mx/4.5.2/../../../../pic32mx/lib/libmchp_peripheral_32MX795F512L.a(port_set_pins_digital_out_lib.o)
 .debug_pubnames
                0x00002fd9       0x33 /opt/microchip/xc32/v1.22/bin/../lib/gcc/pic32mx/4.5.2/../../../../pic32mx/lib/libpic32.a(default-bootstrap-exception-handler.o)
 .debug_pubnames
                0x0000300c       0x20 /opt/microchip/xc32/v1.22/bin/../lib/gcc/pic32mx/4.5.2/../../../../pic32mx/lib/libpic32.a(default-on-reset.o)
 .debug_pubnames
                0x0000302c       0x24 /opt/microchip/xc32/v1.22/bin/../lib/gcc/pic32mx/4.5.2/../../../../pic32mx/lib/libpic32.a(default-on-bootstrap.o)
 .debug_pubnames
                0x00003050       0x31 /opt/microchip/xc32/v1.22/bin/../lib/gcc/pic32mx/4.5.2/../../../../pic32mx/lib/libpic32.a(default-general-exception-handler.o)
 .debug_pubnames
                0x00003081       0x28 /opt/microchip/xc32/v1.22/bin/../lib/gcc/pic32mx/4.5.2/../../../../pic32mx/lib/libpic32.a(defaultinterrupt.o)
 .debug_pubnames
                0x000030a9       0x69 /opt/microchip/xc32/v1.22/bin/../lib/gcc/pic32mx/4.5.2/../../../../pic32mx/lib/libdebug.a(db_utils.o)
 .debug_pubnames
                0x00003112       0x1d /opt/microchip/xc32/v1.22/bin/../lib/gcc/pic32mx/4.5.2/../../../../pic32mx/lib/libc.a(calloc.o)
 .debug_pubnames
                0x0000312f       0x32 /opt/microchip/xc32/v1.22/bin/../lib/gcc/pic32mx/4.5.2/../../../../pic32mx/lib/libc.a(malloc.o)
 .debug_pubnames
                0x00003161       0x25 /opt/microchip/xc32/v1.22/bin/../lib/gcc/pic32mx/4.5.2/../../../../pic32mx/lib/libc.a(puts.o)
 .debug_pubnames
                0x00003186       0x25 /opt/microchip/xc32/v1.22/bin/../lib/gcc/pic32mx/4.5.2/../../../../pic32mx/lib/libc.a(rand.o)
 .debug_pubnames
                0x000031ab       0x29 /opt/microchip/xc32/v1.22/bin/../lib/gcc/pic32mx/4.5.2/../../../../pic32mx/lib/libc.a(setbuf.o)
 .debug_pubnames
                0x000031d4       0x1e /opt/microchip/xc32/v1.22/bin/../lib/gcc/pic32mx/4.5.2/../../../../pic32mx/lib/libc.a(strncmp.o)
 .debug_pubnames
                0x000031f2       0x28 /opt/microchip/xc32/v1.22/bin/../lib/gcc/pic32mx/4.5.2/../../../../pic32mx/lib/libc.a(printf_cdnopsuxX.eo)
 .debug_pubnames
                0x0000321a       0x1d /opt/microchip/xc32/v1.22/bin/../lib/gcc/pic32mx/4.5.2/../../../../pic32mx/lib/libc.a(printf.o)
 .debug_pubnames
                0x00003237       0x1c /opt/microchip/xc32/v1.22/bin/../lib/gcc/pic32mx/4.5.2/../../../../pic32mx/lib/libc.a(_fputc_simple.o)
 .debug_pubnames
                0x00003253       0x2c /opt/microchip/xc32/v1.22/bin/../lib/gcc/pic32mx/4.5.2/../../../../pic32mx/lib/libc.a(buf.o)
 .debug_pubnames
                0x0000327f       0x2a /opt/microchip/xc32/v1.22/bin/../lib/gcc/pic32mx/4.5.2/../../../../pic32mx/lib/libc.a(doprnt_cdnopsuxX.eo)
 .debug_pubnames
                0x000032a9       0x1f /opt/microchip/xc32/v1.22/bin/../lib/gcc/pic32mx/4.5.2/../../../../pic32mx/lib/libc.a(doprnt.o)
 .debug_pubnames
                0x000032c8       0x1e /opt/microchip/xc32/v1.22/bin/../lib/gcc/pic32mx/4.5.2/../../../../pic32mx/lib/libc.a(_flsbuf_simple.o)
 .debug_pubnames
                0x000032e6       0x5c /opt/microchip/xc32/v1.22/bin/../lib/gcc/pic32mx/4.5.2/../../../../pic32mx/lib/libpic32.a(sbrk.o)
 .debug_pubnames
                0x00003342       0x1c /opt/microchip/xc32/v1.22/bin/../lib/gcc/pic32mx/4.5.2/../../../../pic32mx/lib/libpic32.a(write.o)
 .debug_pubnames
                0x0000335e       0x22 /opt/microchip/xc32/v1.22/bin/../lib/gcc/pic32mx/4.5.2/../../../../pic32mx/lib/libe.a(_floatdisf.o)
 .debug_pubnames
                0x00003380       0x24 /opt/microchip/xc32/v1.22/bin/../lib/gcc/pic32mx/4.5.2/libgcc.a(_floatundisf.o)
 .debug_pubnames
                0x000033a4       0x20 /opt/microchip/xc32/v1.22/bin/../lib/gcc/pic32mx/4.5.2/libgcc.a(_udivdi3.o)
 .debug_pubnames
                0x000033c4       0x20 /opt/microchip/xc32/v1.22/bin/../lib/gcc/pic32mx/4.5.2/libgcc.a(_umoddi3.o)
 .debug_pubnames
                0x000033e4       0x24 /opt/microchip/xc32/v1.22/bin/../lib/gcc/pic32mx/4.5.2/libgcc.a(floatunsisf.o)

.debug_info     0x00000000    0x2f86b
 *(.debug_info .gnu.linkonce.wi.*)
 .debug_info    0x00000000     0x1777 build/default/debug/contrib/ports/microchip/netif/ETHPIC32ExtPhyDP83848.o
 .debug_info    0x00001777        0x0 build/default/debug/contrib/ports/microchip/netif/xadapter.o
 .debug_info    0x00001777     0x2100 build/default/debug/contrib/ports/microchip/netif/Microchip_eth.o
 .debug_info    0x00003877     0x27b8 build/default/debug/contrib/ports/microchip/netif/ETHPIC32ExtPhy.o
 .debug_info    0x0000602f      0x2e4 build/default/debug/contrib/ports/microchip/sys_arch_raw.o
 .debug_info    0x00006313      0xb27 build/default/debug/contrib/ports/microchip/sys_arch.o
 .debug_info    0x00006e3a     0x1ec5 build/default/debug/contrib/ports/microchip/ethernetif.o
 .debug_info    0x00008cff      0x2c4 build/default/debug/freertos/heap/heap_3.o
 .debug_info    0x00008fc3      0xcd1 build/default/debug/freertos/timers.o
 .debug_info    0x00009c94     0x269e build/default/debug/freertos/port.o
 .debug_info    0x0000c332       0x8f build/default/debug/freertos/port_asm.o
 .debug_info    0x0000c3c1      0x50f build/default/debug/freertos/list.o
 .debug_info    0x0000c8d0     0x1e4c build/default/debug/freertos/tasks.o
 .debug_info    0x0000e71c      0x923 build/default/debug/freertos/croutine.o
 .debug_info    0x0000f03f     0x10a4 build/default/debug/freertos/queue.o
 .debug_info    0x000100e3     0x193c build/default/debug/lwip-1.4.1/src/api/api_msg.o
 .debug_info    0x00011a1f      0x648 build/default/debug/lwip-1.4.1/src/api/netbuf.o
 .debug_info    0x00012067      0x15b build/default/debug/lwip-1.4.1/src/api/netdb.o
 .debug_info    0x000121c2     0x1245 build/default/debug/lwip-1.4.1/src/api/tcpip.o
 .debug_info    0x00013407     0x24c1 build/default/debug/lwip-1.4.1/src/api/sockets.o
 .debug_info    0x000158c8      0x15e build/default/debug/lwip-1.4.1/src/api/netifapi.o
 .debug_info    0x00015a26      0x159 build/default/debug/lwip-1.4.1/src/api/err.o
 .debug_info    0x00015b7f     0x1941 build/default/debug/lwip-1.4.1/src/api/api_lib.o
 .debug_info    0x000174c0      0x162 build/default/debug/lwip-1.4.1/src/core/ipv4/autoip.o
 .debug_info    0x00017622      0x7c3 build/default/debug/lwip-1.4.1/src/core/ipv4/ip_addr.o
 .debug_info    0x00017de5      0x559 build/default/debug/lwip-1.4.1/src/core/ipv4/inet_chksum.o
 .debug_info    0x0001833e      0x935 build/default/debug/lwip-1.4.1/src/core/ipv4/icmp.o
 .debug_info    0x00018c73      0x160 build/default/debug/lwip-1.4.1/src/core/ipv4/inet.o
 .debug_info    0x00018dd3      0xf41 build/default/debug/lwip-1.4.1/src/core/ipv4/ip_frag.o
 .debug_info    0x00019d14      0xd9d build/default/debug/lwip-1.4.1/src/core/ipv4/ip.o
 .debug_info    0x0001aab1      0x160 build/default/debug/lwip-1.4.1/src/core/ipv4/igmp.o
 .debug_info    0x0001ac11      0x164 build/default/debug/lwip-1.4.1/src/core/snmp/asn1_enc.o
 .debug_info    0x0001ad75      0x163 build/default/debug/lwip-1.4.1/src/core/snmp/msg_out.o
 .debug_info    0x0001aed8      0x160 build/default/debug/lwip-1.4.1/src/core/snmp/mib2.o
 .debug_info    0x0001b038      0x164 build/default/debug/lwip-1.4.1/src/core/snmp/asn1_dec.o
 .debug_info    0x0001b19c      0x162 build/default/debug/lwip-1.4.1/src/core/snmp/msg_in.o
 .debug_info    0x0001b2fe      0x167 build/default/debug/lwip-1.4.1/src/core/snmp/mib_structs.o
 .debug_info    0x0001b465      0xec7 build/default/debug/lwip-1.4.1/src/core/timers.o
 .debug_info    0x0001c32c      0x529 build/default/debug/lwip-1.4.1/src/core/memp.o
 .debug_info    0x0001c855     0x14fb build/default/debug/lwip-1.4.1/src/core/netif.o
 .debug_info    0x0001dd50     0x15c3 build/default/debug/lwip-1.4.1/src/core/pbuf.o
 .debug_info    0x0001f313      0x5f5 build/default/debug/lwip-1.4.1/src/core/mem.o
 .debug_info    0x0001f908     0x1599 build/default/debug/lwip-1.4.1/src/core/dhcp.o
 .debug_info    0x00020ea1     0x163e build/default/debug/lwip-1.4.1/src/core/tcp_out.o
 .debug_info    0x000224df      0x15c build/default/debug/lwip-1.4.1/src/core/stats.o
 .debug_info    0x0002263b     0x138f build/default/debug/lwip-1.4.1/src/core/tcp_in.o
 .debug_info    0x000239ca      0x234 build/default/debug/lwip-1.4.1/src/core/def.o
 .debug_info    0x00023bfe      0x15a build/default/debug/lwip-1.4.1/src/core/raw.o
 .debug_info    0x00023d58      0x15a build/default/debug/lwip-1.4.1/src/core/dns.o
 .debug_info    0x00023eb2     0x10db build/default/debug/lwip-1.4.1/src/core/udp.o
 .debug_info    0x00024f8d      0x2c7 build/default/debug/lwip-1.4.1/src/core/init.o
 .debug_info    0x00025254      0x2cd build/default/debug/lwip-1.4.1/src/core/sys.o
 .debug_info    0x00025521     0x1bd1 build/default/debug/lwip-1.4.1/src/core/tcp.o
 .debug_info    0x000270f2      0x162 build/default/debug/lwip-1.4.1/src/netif/ppp/ppp_oe.o
 .debug_info    0x00027254      0x160 build/default/debug/lwip-1.4.1/src/netif/ppp/chap.o
 .debug_info    0x000273b4      0x15e build/default/debug/lwip-1.4.1/src/netif/ppp/vj.o
 .debug_info    0x00027512      0x160 build/default/debug/lwip-1.4.1/src/netif/ppp/ipcp.o
 .debug_info    0x00027672      0x15f build/default/debug/lwip-1.4.1/src/netif/ppp/fsm.o
 .debug_info    0x000277d1      0x15f build/default/debug/lwip-1.4.1/src/netif/ppp/md5.o
 .debug_info    0x00027930      0x161 build/default/debug/lwip-1.4.1/src/netif/ppp/magic.o
 .debug_info    0x00027a91      0x160 build/default/debug/lwip-1.4.1/src/netif/ppp/auth.o
 .debug_info    0x00027bf1      0x161 build/default/debug/lwip-1.4.1/src/netif/ppp/chpms.o
 .debug_info    0x00027d52      0x15f build/default/debug/lwip-1.4.1/src/netif/ppp/pap.o
 .debug_info    0x00027eb1      0x161 build/default/debug/lwip-1.4.1/src/netif/ppp/randm.o
 .debug_info    0x00028012      0x15f build/default/debug/lwip-1.4.1/src/netif/ppp/lcp.o
 .debug_info    0x00028171      0x15f build/default/debug/lwip-1.4.1/src/netif/ppp/ppp.o
 .debug_info    0x000282d0     0x15aa build/default/debug/lwip-1.4.1/src/netif/etharp.o
 .debug_info    0x0002987a      0x162 build/default/debug/lwip-1.4.1/src/netif/ethernetif.o
 .debug_info    0x000299dc      0x15e build/default/debug/lwip-1.4.1/src/netif/slipif.o
 .debug_info    0x00029b3a     0x17fb build/default/debug/src/main.o
 .debug_info    0x0002b335      0xb50 build/default/debug/src/ip_lwip.o
 .debug_info    0x0002be85      0x5cb build/default/debug/src/echo.o
 .debug_info    0x0002c450       0xaa /opt/microchip/xc32/v1.22/bin/../lib/gcc/pic32mx/4.5.2/../../../../pic32mx/lib/libmchp_peripheral.a(read_core_timer_lib.o)
 .debug_info    0x0002c4fa      0x16b /opt/microchip/xc32/v1.22/bin/../lib/gcc/pic32mx/4.5.2/../../../../pic32mx/lib/libmchp_peripheral_32MX795F512L.a(eth_ack_packet_lib.o)
 .debug_info    0x0002c665       0xf2 /opt/microchip/xc32/v1.22/bin/../lib/gcc/pic32mx/4.5.2/../../../../pic32mx/lib/libmchp_peripheral_32MX795F512L.a(eth_descriptors_add_lib.o)
 .debug_info    0x0002c757       0xbe /opt/microchip/xc32/v1.22/bin/../lib/gcc/pic32mx/4.5.2/../../../../pic32mx/lib/libmchp_peripheral_32MX795F512L.a(eth_init_lib.o)
 .debug_info    0x0002c815       0xa2 /opt/microchip/xc32/v1.22/bin/../lib/gcc/pic32mx/4.5.2/../../../../pic32mx/lib/libmchp_peripheral_32MX795F512L.a(eth_mac_open_lib.o)
 .debug_info    0x0002c8b7       0xf2 /opt/microchip/xc32/v1.22/bin/../lib/gcc/pic32mx/4.5.2/../../../../pic32mx/lib/libmchp_peripheral_32MX795F512L.a(eth_mac_set_address_max_lib.o)
 .debug_info    0x0002c9a9       0xe6 /opt/microchip/xc32/v1.22/bin/../lib/gcc/pic32mx/4.5.2/../../../../pic32mx/lib/libmchp_peripheral_32MX795F512L.a(eth_rx_buffers_append_lib.o)
 .debug_info    0x0002ca8f      0x147 /opt/microchip/xc32/v1.22/bin/../lib/gcc/pic32mx/4.5.2/../../../../pic32mx/lib/libmchp_peripheral_32MX795F512L.a(eth_rx_filters_lib.o)
 .debug_info    0x0002cbd6       0xc8 /opt/microchip/xc32/v1.22/bin/../lib/gcc/pic32mx/4.5.2/../../../../pic32mx/lib/libmchp_peripheral_32MX795F512L.a(eth_rx_get_packet_lib.o)
 .debug_info    0x0002cc9e       0xb4 /opt/microchip/xc32/v1.22/bin/../lib/gcc/pic32mx/4.5.2/../../../../pic32mx/lib/libmchp_peripheral_32MX795F512L.a(eth_rx_set_buffer_size_lib.o)
 .debug_info    0x0002cd52      0x17c /opt/microchip/xc32/v1.22/bin/../lib/gcc/pic32mx/4.5.2/../../../../pic32mx/lib/libmchp_peripheral_32MX795F512L.a(eth_tx_packet_lib.o)
 .debug_info    0x0002cece       0xd4 /opt/microchip/xc32/v1.22/bin/../lib/gcc/pic32mx/4.5.2/../../../../pic32mx/lib/libmchp_peripheral_32MX795F512L.a(_eth_append_busy_list_lib.o)
 .debug_info    0x0002cfa2      0x143 /opt/microchip/xc32/v1.22/bin/../lib/gcc/pic32mx/4.5.2/../../../../pic32mx/lib/libmchp_peripheral_32MX795F512L.a(eth_miim_access.o)
 .debug_info    0x0002d0e5      0x196 /opt/microchip/xc32/v1.22/bin/../lib/gcc/pic32mx/4.5.2/../../../../pic32mx/lib/libmchp_peripheral_32MX795F512L.a(int_tbl_lib.o)
 .debug_info    0x0002d27b       0xba /opt/microchip/xc32/v1.22/bin/../lib/gcc/pic32mx/4.5.2/../../../../pic32mx/lib/libmchp_peripheral_32MX795F512L.a(port_set_pins_digital_in_lib.o)
 .debug_info    0x0002d335       0xbc /opt/microchip/xc32/v1.22/bin/../lib/gcc/pic32mx/4.5.2/../../../../pic32mx/lib/libmchp_peripheral_32MX795F512L.a(port_set_pins_digital_out_lib.o)
 .debug_info    0x0002d3f1        0x0 /opt/microchip/xc32/v1.22/bin/../lib/gcc/pic32mx/4.5.2/../../../../pic32mx/lib/libmchp_peripheral_32MX795F512L.a(_ports_tbl_libp.o)
 .debug_info    0x0002d3f1       0xde /opt/microchip/xc32/v1.22/bin/../lib/gcc/pic32mx/4.5.2/../../../../pic32mx/lib/libpic32.a(default-bootstrap-exception-handler.o)
 .debug_info    0x0002d4cf       0xb8 /opt/microchip/xc32/v1.22/bin/../lib/gcc/pic32mx/4.5.2/../../../../pic32mx/lib/libpic32.a(default-on-reset.o)
 .debug_info    0x0002d587       0xc0 /opt/microchip/xc32/v1.22/bin/../lib/gcc/pic32mx/4.5.2/../../../../pic32mx/lib/libpic32.a(default-on-bootstrap.o)
 .debug_info    0x0002d647       0xda /opt/microchip/xc32/v1.22/bin/../lib/gcc/pic32mx/4.5.2/../../../../pic32mx/lib/libpic32.a(default-general-exception-handler.o)
 .debug_info    0x0002d721       0xd2 /opt/microchip/xc32/v1.22/bin/../lib/gcc/pic32mx/4.5.2/../../../../pic32mx/lib/libpic32.a(defaultinterrupt.o)
 .debug_info    0x0002d7f3      0x12f /opt/microchip/xc32/v1.22/bin/../lib/gcc/pic32mx/4.5.2/../../../../pic32mx/lib/libdebug.a(db_utils.o)
 .debug_info    0x0002d922        0x0 /opt/microchip/xc32/v1.22/bin/../lib/gcc/pic32mx/4.5.2/../../../../pic32mx/lib/libpic32.a(xc32_uart.o)
 .debug_info    0x0002d922        0x0 /opt/microchip/xc32/v1.22/bin/../lib/gcc/pic32mx/4.5.2/../../../../pic32mx/lib/libc.a(_iob.o)
 .debug_info    0x0002d922       0xb1 /opt/microchip/xc32/v1.22/bin/../lib/gcc/pic32mx/4.5.2/../../../../pic32mx/lib/libc.a(calloc.o)
 .debug_info    0x0002d9d3       0xe0 /opt/microchip/xc32/v1.22/bin/../lib/gcc/pic32mx/4.5.2/../../../../pic32mx/lib/libc.a(malloc.o)
 .debug_info    0x0002dab3       0xc1 /opt/microchip/xc32/v1.22/bin/../lib/gcc/pic32mx/4.5.2/../../../../pic32mx/lib/libc.a(puts.o)
 .debug_info    0x0002db74       0xc7 /opt/microchip/xc32/v1.22/bin/../lib/gcc/pic32mx/4.5.2/../../../../pic32mx/lib/libc.a(rand.o)
 .debug_info    0x0002dc3b       0xc7 /opt/microchip/xc32/v1.22/bin/../lib/gcc/pic32mx/4.5.2/../../../../pic32mx/lib/libc.a(setbuf.o)
 .debug_info    0x0002dd02       0xb3 /opt/microchip/xc32/v1.22/bin/../lib/gcc/pic32mx/4.5.2/../../../../pic32mx/lib/libc.a(strncmp.o)
 .debug_info    0x0002ddb5       0xbc /opt/microchip/xc32/v1.22/bin/../lib/gcc/pic32mx/4.5.2/../../../../pic32mx/lib/libc.a(printf_cdnopsuxX.eo)
 .debug_info    0x0002de71       0xb1 /opt/microchip/xc32/v1.22/bin/../lib/gcc/pic32mx/4.5.2/../../../../pic32mx/lib/libc.a(printf.o)
 .debug_info    0x0002df22       0xaf /opt/microchip/xc32/v1.22/bin/../lib/gcc/pic32mx/4.5.2/../../../../pic32mx/lib/libc.a(_fputc_simple.o)
 .debug_info    0x0002dfd1       0xd6 /opt/microchip/xc32/v1.22/bin/../lib/gcc/pic32mx/4.5.2/../../../../pic32mx/lib/libc.a(buf.o)
 .debug_info    0x0002e0a7        0x0 /opt/microchip/xc32/v1.22/bin/../lib/gcc/pic32mx/4.5.2/../../../../pic32mx/lib/libc.a(errno.o)
 .debug_info    0x0002e0a7       0xbf /opt/microchip/xc32/v1.22/bin/../lib/gcc/pic32mx/4.5.2/../../../../pic32mx/lib/libc.a(doprnt_cdnopsuxX.eo)
 .debug_info    0x0002e166       0xdd /opt/microchip/xc32/v1.22/bin/../lib/gcc/pic32mx/4.5.2/../../../../pic32mx/lib/libc.a(doprnt.o)
 .debug_info    0x0002e243       0xb2 /opt/microchip/xc32/v1.22/bin/../lib/gcc/pic32mx/4.5.2/../../../../pic32mx/lib/libc.a(_flsbuf_simple.o)
 .debug_info    0x0002e2f5        0x0 /opt/microchip/xc32/v1.22/bin/../lib/gcc/pic32mx/4.5.2/../../../../pic32mx/lib/libc.a(ctype.o)
 .debug_info    0x0002e2f5        0x0 /opt/microchip/xc32/v1.22/bin/../lib/gcc/pic32mx/4.5.2/../../../../pic32mx/lib/libc.a(powersf.o)
 .debug_info    0x0002e2f5      0x111 /opt/microchip/xc32/v1.22/bin/../lib/gcc/pic32mx/4.5.2/../../../../pic32mx/lib/libpic32.a(sbrk.o)
 .debug_info    0x0002e406       0xa9 /opt/microchip/xc32/v1.22/bin/../lib/gcc/pic32mx/4.5.2/../../../../pic32mx/lib/libpic32.a(write.o)
 .debug_info    0x0002e4af       0xc7 /opt/microchip/xc32/v1.22/bin/../lib/gcc/pic32mx/4.5.2/../../../../pic32mx/lib/libe.a(_floatdisf.o)
 .debug_info    0x0002e576      0x2a1 /opt/microchip/xc32/v1.22/bin/../lib/gcc/pic32mx/4.5.2/libgcc.a(_floatundisf.o)
 .debug_info    0x0002e817      0x761 /opt/microchip/xc32/v1.22/bin/../lib/gcc/pic32mx/4.5.2/libgcc.a(_udivdi3.o)
 .debug_info    0x0002ef78      0x79a /opt/microchip/xc32/v1.22/bin/../lib/gcc/pic32mx/4.5.2/libgcc.a(_umoddi3.o)
 .debug_info    0x0002f712      0x159 /opt/microchip/xc32/v1.22/bin/../lib/gcc/pic32mx/4.5.2/libgcc.a(floatunsisf.o)

.debug_abbrev   0x00000000     0x5052
 *(.debug_abbrev)
 .debug_abbrev  0x00000000      0x1e1 build/default/debug/contrib/ports/microchip/netif/ETHPIC32ExtPhyDP83848.o
 .debug_abbrev  0x000001e1        0x1 build/default/debug/contrib/ports/microchip/netif/xadapter.o
 .debug_abbrev  0x000001e2      0x243 build/default/debug/contrib/ports/microchip/netif/Microchip_eth.o
 .debug_abbrev  0x00000425      0x348 build/default/debug/contrib/ports/microchip/netif/ETHPIC32ExtPhy.o
 .debug_abbrev  0x0000076d       0xa1 build/default/debug/contrib/ports/microchip/sys_arch_raw.o
 .debug_abbrev  0x0000080e      0x153 build/default/debug/contrib/ports/microchip/sys_arch.o
 .debug_abbrev  0x00000961      0x328 build/default/debug/contrib/ports/microchip/ethernetif.o
 .debug_abbrev  0x00000c89       0xc0 build/default/debug/freertos/heap/heap_3.o
 .debug_abbrev  0x00000d49      0x185 build/default/debug/freertos/timers.o
 .debug_abbrev  0x00000ece      0x2ac build/default/debug/freertos/port.o
 .debug_abbrev  0x0000117a       0x14 build/default/debug/freertos/port_asm.o
 .debug_abbrev  0x0000118e       0xf3 build/default/debug/freertos/list.o
 .debug_abbrev  0x00001281      0x1de build/default/debug/freertos/tasks.o
 .debug_abbrev  0x0000145f      0x191 build/default/debug/freertos/croutine.o
 .debug_abbrev  0x000015f0      0x196 build/default/debug/freertos/queue.o
 .debug_abbrev  0x00001786      0x240 build/default/debug/lwip-1.4.1/src/api/api_msg.o
 .debug_abbrev  0x000019c6       0xd8 build/default/debug/lwip-1.4.1/src/api/netbuf.o
 .debug_abbrev  0x00001a9e       0x1f build/default/debug/lwip-1.4.1/src/api/netdb.o
 .debug_abbrev  0x00001abd      0x1db build/default/debug/lwip-1.4.1/src/api/tcpip.o
 .debug_abbrev  0x00001c98      0x247 build/default/debug/lwip-1.4.1/src/api/sockets.o
 .debug_abbrev  0x00001edf       0x1f build/default/debug/lwip-1.4.1/src/api/netifapi.o
 .debug_abbrev  0x00001efe       0x1f build/default/debug/lwip-1.4.1/src/api/err.o
 .debug_abbrev  0x00001f1d      0x1f4 build/default/debug/lwip-1.4.1/src/api/api_lib.o
 .debug_abbrev  0x00002111       0x1f build/default/debug/lwip-1.4.1/src/core/ipv4/autoip.o
 .debug_abbrev  0x00002130      0x116 build/default/debug/lwip-1.4.1/src/core/ipv4/ip_addr.o
 .debug_abbrev  0x00002246       0xfb build/default/debug/lwip-1.4.1/src/core/ipv4/inet_chksum.o
 .debug_abbrev  0x00002341      0x166 build/default/debug/lwip-1.4.1/src/core/ipv4/icmp.o
 .debug_abbrev  0x000024a7       0x1f build/default/debug/lwip-1.4.1/src/core/ipv4/inet.o
 .debug_abbrev  0x000024c6      0x1cb build/default/debug/lwip-1.4.1/src/core/ipv4/ip_frag.o
 .debug_abbrev  0x00002691      0x1a4 build/default/debug/lwip-1.4.1/src/core/ipv4/ip.o
 .debug_abbrev  0x00002835       0x1f build/default/debug/lwip-1.4.1/src/core/ipv4/igmp.o
 .debug_abbrev  0x00002854       0x1f build/default/debug/lwip-1.4.1/src/core/snmp/asn1_enc.o
 .debug_abbrev  0x00002873       0x1f build/default/debug/lwip-1.4.1/src/core/snmp/msg_out.o
 .debug_abbrev  0x00002892       0x1f build/default/debug/lwip-1.4.1/src/core/snmp/mib2.o
 .debug_abbrev  0x000028b1       0x1f build/default/debug/lwip-1.4.1/src/core/snmp/asn1_dec.o
 .debug_abbrev  0x000028d0       0x1f build/default/debug/lwip-1.4.1/src/core/snmp/msg_in.o
 .debug_abbrev  0x000028ef       0x1f build/default/debug/lwip-1.4.1/src/core/snmp/mib_structs.o
 .debug_abbrev  0x0000290e      0x1a8 build/default/debug/lwip-1.4.1/src/core/timers.o
 .debug_abbrev  0x00002ab6      0x13d build/default/debug/lwip-1.4.1/src/core/memp.o
 .debug_abbrev  0x00002bf3      0x22f build/default/debug/lwip-1.4.1/src/core/netif.o
 .debug_abbrev  0x00002e22      0x1e5 build/default/debug/lwip-1.4.1/src/core/pbuf.o
 .debug_abbrev  0x00003007      0x15a build/default/debug/lwip-1.4.1/src/core/mem.o
 .debug_abbrev  0x00003161      0x1df build/default/debug/lwip-1.4.1/src/core/dhcp.o
 .debug_abbrev  0x00003340      0x22c build/default/debug/lwip-1.4.1/src/core/tcp_out.o
 .debug_abbrev  0x0000356c       0x1f build/default/debug/lwip-1.4.1/src/core/stats.o
 .debug_abbrev  0x0000358b      0x20d build/default/debug/lwip-1.4.1/src/core/tcp_in.o
 .debug_abbrev  0x00003798       0x6b build/default/debug/lwip-1.4.1/src/core/def.o
 .debug_abbrev  0x00003803       0x1f build/default/debug/lwip-1.4.1/src/core/raw.o
 .debug_abbrev  0x00003822       0x1f build/default/debug/lwip-1.4.1/src/core/dns.o
 .debug_abbrev  0x00003841      0x1cd build/default/debug/lwip-1.4.1/src/core/udp.o
 .debug_abbrev  0x00003a0e       0xf1 build/default/debug/lwip-1.4.1/src/core/init.o
 .debug_abbrev  0x00003aff       0xaf build/default/debug/lwip-1.4.1/src/core/sys.o
 .debug_abbrev  0x00003bae      0x261 build/default/debug/lwip-1.4.1/src/core/tcp.o
 .debug_abbrev  0x00003e0f       0x1f build/default/debug/lwip-1.4.1/src/netif/ppp/ppp_oe.o
 .debug_abbrev  0x00003e2e       0x1f build/default/debug/lwip-1.4.1/src/netif/ppp/chap.o
 .debug_abbrev  0x00003e4d       0x1f build/default/debug/lwip-1.4.1/src/netif/ppp/vj.o
 .debug_abbrev  0x00003e6c       0x1f build/default/debug/lwip-1.4.1/src/netif/ppp/ipcp.o
 .debug_abbrev  0x00003e8b       0x1f build/default/debug/lwip-1.4.1/src/netif/ppp/fsm.o
 .debug_abbrev  0x00003eaa       0x1f build/default/debug/lwip-1.4.1/src/netif/ppp/md5.o
 .debug_abbrev  0x00003ec9       0x1f build/default/debug/lwip-1.4.1/src/netif/ppp/magic.o
 .debug_abbrev  0x00003ee8       0x1f build/default/debug/lwip-1.4.1/src/netif/ppp/auth.o
 .debug_abbrev  0x00003f07       0x1f build/default/debug/lwip-1.4.1/src/netif/ppp/chpms.o
 .debug_abbrev  0x00003f26       0x1f build/default/debug/lwip-1.4.1/src/netif/ppp/pap.o
 .debug_abbrev  0x00003f45       0x1f build/default/debug/lwip-1.4.1/src/netif/ppp/randm.o
 .debug_abbrev  0x00003f64       0x1f build/default/debug/lwip-1.4.1/src/netif/ppp/lcp.o
 .debug_abbrev  0x00003f83       0x1f build/default/debug/lwip-1.4.1/src/netif/ppp/ppp.o
 .debug_abbrev  0x00003fa2      0x22b build/default/debug/lwip-1.4.1/src/netif/etharp.o
 .debug_abbrev  0x000041cd       0x1f build/default/debug/lwip-1.4.1/src/netif/ethernetif.o
 .debug_abbrev  0x000041ec       0x1f build/default/debug/lwip-1.4.1/src/netif/slipif.o
 .debug_abbrev  0x0000420b      0x1d1 build/default/debug/src/main.o
 .debug_abbrev  0x000043dc      0x12b build/default/debug/src/ip_lwip.o
 .debug_abbrev  0x00004507      0x154 build/default/debug/src/echo.o
 .debug_abbrev  0x0000465b       0x25 /opt/microchip/xc32/v1.22/bin/../lib/gcc/pic32mx/4.5.2/../../../../pic32mx/lib/libmchp_peripheral.a(read_core_timer_lib.o)
 .debug_abbrev  0x00004680       0x58 /opt/microchip/xc32/v1.22/bin/../lib/gcc/pic32mx/4.5.2/../../../../pic32mx/lib/libmchp_peripheral_32MX795F512L.a(eth_ack_packet_lib.o)
 .debug_abbrev  0x000046d8       0x34 /opt/microchip/xc32/v1.22/bin/../lib/gcc/pic32mx/4.5.2/../../../../pic32mx/lib/libmchp_peripheral_32MX795F512L.a(eth_descriptors_add_lib.o)
 .debug_abbrev  0x0000470c       0x34 /opt/microchip/xc32/v1.22/bin/../lib/gcc/pic32mx/4.5.2/../../../../pic32mx/lib/libmchp_peripheral_32MX795F512L.a(eth_init_lib.o)
 .debug_abbrev  0x00004740       0x25 /opt/microchip/xc32/v1.22/bin/../lib/gcc/pic32mx/4.5.2/../../../../pic32mx/lib/libmchp_peripheral_32MX795F512L.a(eth_mac_open_lib.o)
 .debug_abbrev  0x00004765       0x25 /opt/microchip/xc32/v1.22/bin/../lib/gcc/pic32mx/4.5.2/../../../../pic32mx/lib/libmchp_peripheral_32MX795F512L.a(eth_mac_set_address_max_lib.o)
 .debug_abbrev  0x0000478a       0x34 /opt/microchip/xc32/v1.22/bin/../lib/gcc/pic32mx/4.5.2/../../../../pic32mx/lib/libmchp_peripheral_32MX795F512L.a(eth_rx_buffers_append_lib.o)
 .debug_abbrev  0x000047be       0x25 /opt/microchip/xc32/v1.22/bin/../lib/gcc/pic32mx/4.5.2/../../../../pic32mx/lib/libmchp_peripheral_32MX795F512L.a(eth_rx_filters_lib.o)
 .debug_abbrev  0x000047e3       0x25 /opt/microchip/xc32/v1.22/bin/../lib/gcc/pic32mx/4.5.2/../../../../pic32mx/lib/libmchp_peripheral_32MX795F512L.a(eth_rx_get_packet_lib.o)
 .debug_abbrev  0x00004808       0x25 /opt/microchip/xc32/v1.22/bin/../lib/gcc/pic32mx/4.5.2/../../../../pic32mx/lib/libmchp_peripheral_32MX795F512L.a(eth_rx_set_buffer_size_lib.o)
 .debug_abbrev  0x0000482d       0x61 /opt/microchip/xc32/v1.22/bin/../lib/gcc/pic32mx/4.5.2/../../../../pic32mx/lib/libmchp_peripheral_32MX795F512L.a(eth_tx_packet_lib.o)
 .debug_abbrev  0x0000488e       0x34 /opt/microchip/xc32/v1.22/bin/../lib/gcc/pic32mx/4.5.2/../../../../pic32mx/lib/libmchp_peripheral_32MX795F512L.a(_eth_append_busy_list_lib.o)
 .debug_abbrev  0x000048c2       0x38 /opt/microchip/xc32/v1.22/bin/../lib/gcc/pic32mx/4.5.2/../../../../pic32mx/lib/libmchp_peripheral_32MX795F512L.a(eth_miim_access.o)
 .debug_abbrev  0x000048fa       0x25 /opt/microchip/xc32/v1.22/bin/../lib/gcc/pic32mx/4.5.2/../../../../pic32mx/lib/libmchp_peripheral_32MX795F512L.a(int_tbl_lib.o)
 .debug_abbrev  0x0000491f       0x25 /opt/microchip/xc32/v1.22/bin/../lib/gcc/pic32mx/4.5.2/../../../../pic32mx/lib/libmchp_peripheral_32MX795F512L.a(port_set_pins_digital_in_lib.o)
 .debug_abbrev  0x00004944       0x25 /opt/microchip/xc32/v1.22/bin/../lib/gcc/pic32mx/4.5.2/../../../../pic32mx/lib/libmchp_peripheral_32MX795F512L.a(port_set_pins_digital_out_lib.o)
 .debug_abbrev  0x00004969        0x1 /opt/microchip/xc32/v1.22/bin/../lib/gcc/pic32mx/4.5.2/../../../../pic32mx/lib/libmchp_peripheral_32MX795F512L.a(_ports_tbl_libp.o)
 .debug_abbrev  0x0000496a       0x23 /opt/microchip/xc32/v1.22/bin/../lib/gcc/pic32mx/4.5.2/../../../../pic32mx/lib/libpic32.a(default-bootstrap-exception-handler.o)
 .debug_abbrev  0x0000498d       0x23 /opt/microchip/xc32/v1.22/bin/../lib/gcc/pic32mx/4.5.2/../../../../pic32mx/lib/libpic32.a(default-on-reset.o)
 .debug_abbrev  0x000049b0       0x23 /opt/microchip/xc32/v1.22/bin/../lib/gcc/pic32mx/4.5.2/../../../../pic32mx/lib/libpic32.a(default-on-bootstrap.o)
 .debug_abbrev  0x000049d3       0x23 /opt/microchip/xc32/v1.22/bin/../lib/gcc/pic32mx/4.5.2/../../../../pic32mx/lib/libpic32.a(default-general-exception-handler.o)
 .debug_abbrev  0x000049f6       0x23 /opt/microchip/xc32/v1.22/bin/../lib/gcc/pic32mx/4.5.2/../../../../pic32mx/lib/libpic32.a(defaultinterrupt.o)
 .debug_abbrev  0x00004a19       0x23 /opt/microchip/xc32/v1.22/bin/../lib/gcc/pic32mx/4.5.2/../../../../pic32mx/lib/libdebug.a(db_utils.o)
 .debug_abbrev  0x00004a3c        0x1 /opt/microchip/xc32/v1.22/bin/../lib/gcc/pic32mx/4.5.2/../../../../pic32mx/lib/libpic32.a(xc32_uart.o)
 .debug_abbrev  0x00004a3d        0x1 /opt/microchip/xc32/v1.22/bin/../lib/gcc/pic32mx/4.5.2/../../../../pic32mx/lib/libc.a(_iob.o)
 .debug_abbrev  0x00004a3e       0x23 /opt/microchip/xc32/v1.22/bin/../lib/gcc/pic32mx/4.5.2/../../../../pic32mx/lib/libc.a(calloc.o)
 .debug_abbrev  0x00004a61       0x3f /opt/microchip/xc32/v1.22/bin/../lib/gcc/pic32mx/4.5.2/../../../../pic32mx/lib/libc.a(malloc.o)
 .debug_abbrev  0x00004aa0       0x23 /opt/microchip/xc32/v1.22/bin/../lib/gcc/pic32mx/4.5.2/../../../../pic32mx/lib/libc.a(puts.o)
 .debug_abbrev  0x00004ac3       0x3f /opt/microchip/xc32/v1.22/bin/../lib/gcc/pic32mx/4.5.2/../../../../pic32mx/lib/libc.a(rand.o)
 .debug_abbrev  0x00004b02       0x23 /opt/microchip/xc32/v1.22/bin/../lib/gcc/pic32mx/4.5.2/../../../../pic32mx/lib/libc.a(setbuf.o)
 .debug_abbrev  0x00004b25       0x23 /opt/microchip/xc32/v1.22/bin/../lib/gcc/pic32mx/4.5.2/../../../../pic32mx/lib/libc.a(strncmp.o)
 .debug_abbrev  0x00004b48       0x23 /opt/microchip/xc32/v1.22/bin/../lib/gcc/pic32mx/4.5.2/../../../../pic32mx/lib/libc.a(printf_cdnopsuxX.eo)
 .debug_abbrev  0x00004b6b       0x23 /opt/microchip/xc32/v1.22/bin/../lib/gcc/pic32mx/4.5.2/../../../../pic32mx/lib/libc.a(printf.o)
 .debug_abbrev  0x00004b8e       0x23 /opt/microchip/xc32/v1.22/bin/../lib/gcc/pic32mx/4.5.2/../../../../pic32mx/lib/libc.a(_fputc_simple.o)
 .debug_abbrev  0x00004bb1       0x47 /opt/microchip/xc32/v1.22/bin/../lib/gcc/pic32mx/4.5.2/../../../../pic32mx/lib/libc.a(buf.o)
 .debug_abbrev  0x00004bf8        0x1 /opt/microchip/xc32/v1.22/bin/../lib/gcc/pic32mx/4.5.2/../../../../pic32mx/lib/libc.a(errno.o)
 .debug_abbrev  0x00004bf9       0x23 /opt/microchip/xc32/v1.22/bin/../lib/gcc/pic32mx/4.5.2/../../../../pic32mx/lib/libc.a(doprnt_cdnopsuxX.eo)
 .debug_abbrev  0x00004c1c       0x34 /opt/microchip/xc32/v1.22/bin/../lib/gcc/pic32mx/4.5.2/../../../../pic32mx/lib/libc.a(doprnt.o)
 .debug_abbrev  0x00004c50       0x23 /opt/microchip/xc32/v1.22/bin/../lib/gcc/pic32mx/4.5.2/../../../../pic32mx/lib/libc.a(_flsbuf_simple.o)
 .debug_abbrev  0x00004c73        0x1 /opt/microchip/xc32/v1.22/bin/../lib/gcc/pic32mx/4.5.2/../../../../pic32mx/lib/libc.a(ctype.o)
 .debug_abbrev  0x00004c74        0x1 /opt/microchip/xc32/v1.22/bin/../lib/gcc/pic32mx/4.5.2/../../../../pic32mx/lib/libc.a(powersf.o)
 .debug_abbrev  0x00004c75       0x36 /opt/microchip/xc32/v1.22/bin/../lib/gcc/pic32mx/4.5.2/../../../../pic32mx/lib/libpic32.a(sbrk.o)
 .debug_abbrev  0x00004cab       0x23 /opt/microchip/xc32/v1.22/bin/../lib/gcc/pic32mx/4.5.2/../../../../pic32mx/lib/libpic32.a(write.o)
 .debug_abbrev  0x00004cce       0x30 /opt/microchip/xc32/v1.22/bin/../lib/gcc/pic32mx/4.5.2/../../../../pic32mx/lib/libe.a(_floatdisf.o)
 .debug_abbrev  0x00004cfe       0x79 /opt/microchip/xc32/v1.22/bin/../lib/gcc/pic32mx/4.5.2/libgcc.a(_floatundisf.o)
 .debug_abbrev  0x00004d77      0x132 /opt/microchip/xc32/v1.22/bin/../lib/gcc/pic32mx/4.5.2/libgcc.a(_udivdi3.o)
 .debug_abbrev  0x00004ea9      0x148 /opt/microchip/xc32/v1.22/bin/../lib/gcc/pic32mx/4.5.2/libgcc.a(_umoddi3.o)
 .debug_abbrev  0x00004ff1       0x61 /opt/microchip/xc32/v1.22/bin/../lib/gcc/pic32mx/4.5.2/libgcc.a(floatunsisf.o)

.debug_line     0x00000000     0x90d9
 *(.debug_line)
 .debug_line    0x00000000      0x2a8 build/default/debug/contrib/ports/microchip/netif/ETHPIC32ExtPhyDP83848.o
 .debug_line    0x000002a8        0x0 build/default/debug/contrib/ports/microchip/netif/xadapter.o
 .debug_line    0x000002a8      0x3f3 build/default/debug/contrib/ports/microchip/netif/Microchip_eth.o
 .debug_line    0x0000069b      0x4a4 build/default/debug/contrib/ports/microchip/netif/ETHPIC32ExtPhy.o
 .debug_line    0x00000b3f      0x186 build/default/debug/contrib/ports/microchip/sys_arch_raw.o
 .debug_line    0x00000cc5      0x312 build/default/debug/contrib/ports/microchip/sys_arch.o
 .debug_line    0x00000fd7      0x3d3 build/default/debug/contrib/ports/microchip/ethernetif.o
 .debug_line    0x000013aa      0x133 build/default/debug/freertos/heap/heap_3.o
 .debug_line    0x000014dd      0x295 build/default/debug/freertos/timers.o
 .debug_line    0x00001772      0x34d build/default/debug/freertos/port.o
 .debug_line    0x00001abf       0xc7 build/default/debug/freertos/port_asm.o
 .debug_line    0x00001b86      0x191 build/default/debug/freertos/list.o
 .debug_line    0x00001d17      0x660 build/default/debug/freertos/tasks.o
 .debug_line    0x00002377      0x207 build/default/debug/freertos/croutine.o
 .debug_line    0x0000257e      0x457 build/default/debug/freertos/queue.o
 .debug_line    0x000029d5      0x5a7 build/default/debug/lwip-1.4.1/src/api/api_msg.o
 .debug_line    0x00002f7c      0x16c build/default/debug/lwip-1.4.1/src/api/netbuf.o
 .debug_line    0x000030e8       0x1d build/default/debug/lwip-1.4.1/src/api/netdb.o
 .debug_line    0x00003105      0x316 build/default/debug/lwip-1.4.1/src/api/tcpip.o
 .debug_line    0x0000341b      0x6fb build/default/debug/lwip-1.4.1/src/api/sockets.o
 .debug_line    0x00003b16       0x1d build/default/debug/lwip-1.4.1/src/api/netifapi.o
 .debug_line    0x00003b33       0x1d build/default/debug/lwip-1.4.1/src/api/err.o
 .debug_line    0x00003b50      0x3af build/default/debug/lwip-1.4.1/src/api/api_lib.o
 .debug_line    0x00003eff       0x1d build/default/debug/lwip-1.4.1/src/core/ipv4/autoip.o
 .debug_line    0x00003f1c      0x1a6 build/default/debug/lwip-1.4.1/src/core/ipv4/ip_addr.o
 .debug_line    0x000040c2      0x197 build/default/debug/lwip-1.4.1/src/core/ipv4/inet_chksum.o
 .debug_line    0x00004259      0x199 build/default/debug/lwip-1.4.1/src/core/ipv4/icmp.o
 .debug_line    0x000043f2       0x1d build/default/debug/lwip-1.4.1/src/core/ipv4/inet.o
 .debug_line    0x0000440f      0x2dd build/default/debug/lwip-1.4.1/src/core/ipv4/ip_frag.o
 .debug_line    0x000046ec      0x1f9 build/default/debug/lwip-1.4.1/src/core/ipv4/ip.o
 .debug_line    0x000048e5       0x1d build/default/debug/lwip-1.4.1/src/core/ipv4/igmp.o
 .debug_line    0x00004902       0x1d build/default/debug/lwip-1.4.1/src/core/snmp/asn1_enc.o
 .debug_line    0x0000491f       0x1d build/default/debug/lwip-1.4.1/src/core/snmp/msg_out.o
 .debug_line    0x0000493c       0x1d build/default/debug/lwip-1.4.1/src/core/snmp/mib2.o
 .debug_line    0x00004959       0x1d build/default/debug/lwip-1.4.1/src/core/snmp/asn1_dec.o
 .debug_line    0x00004976       0x1d build/default/debug/lwip-1.4.1/src/core/snmp/msg_in.o
 .debug_line    0x00004993       0x1d build/default/debug/lwip-1.4.1/src/core/snmp/mib_structs.o
 .debug_line    0x000049b0      0x260 build/default/debug/lwip-1.4.1/src/core/timers.o
 .debug_line    0x00004c10      0x16b build/default/debug/lwip-1.4.1/src/core/memp.o
 .debug_line    0x00004d7b      0x1f8 build/default/debug/lwip-1.4.1/src/core/netif.o
 .debug_line    0x00004f73      0x422 build/default/debug/lwip-1.4.1/src/core/pbuf.o
 .debug_line    0x00005395      0x234 build/default/debug/lwip-1.4.1/src/core/mem.o
 .debug_line    0x000055c9      0x503 build/default/debug/lwip-1.4.1/src/core/dhcp.o
 .debug_line    0x00005acc      0x43d build/default/debug/lwip-1.4.1/src/core/tcp_out.o
 .debug_line    0x00005f09       0x1d build/default/debug/lwip-1.4.1/src/core/stats.o
 .debug_line    0x00005f26      0x5b6 build/default/debug/lwip-1.4.1/src/core/tcp_in.o
 .debug_line    0x000064dc       0x96 build/default/debug/lwip-1.4.1/src/core/def.o
 .debug_line    0x00006572       0x1d build/default/debug/lwip-1.4.1/src/core/raw.o
 .debug_line    0x0000658f       0x1d build/default/debug/lwip-1.4.1/src/core/dns.o
 .debug_line    0x000065ac      0x281 build/default/debug/lwip-1.4.1/src/core/udp.o
 .debug_line    0x0000682d       0xe1 build/default/debug/lwip-1.4.1/src/core/init.o
 .debug_line    0x0000690e      0x157 build/default/debug/lwip-1.4.1/src/core/sys.o
 .debug_line    0x00006a65      0x48e build/default/debug/lwip-1.4.1/src/core/tcp.o
 .debug_line    0x00006ef3       0x1d build/default/debug/lwip-1.4.1/src/netif/ppp/ppp_oe.o
 .debug_line    0x00006f10       0x1d build/default/debug/lwip-1.4.1/src/netif/ppp/chap.o
 .debug_line    0x00006f2d       0x1d build/default/debug/lwip-1.4.1/src/netif/ppp/vj.o
 .debug_line    0x00006f4a       0x1d build/default/debug/lwip-1.4.1/src/netif/ppp/ipcp.o
 .debug_line    0x00006f67       0x1d build/default/debug/lwip-1.4.1/src/netif/ppp/fsm.o
 .debug_line    0x00006f84       0x1d build/default/debug/lwip-1.4.1/src/netif/ppp/md5.o
 .debug_line    0x00006fa1       0x1d build/default/debug/lwip-1.4.1/src/netif/ppp/magic.o
 .debug_line    0x00006fbe       0x1d build/default/debug/lwip-1.4.1/src/netif/ppp/auth.o
 .debug_line    0x00006fdb       0x1d build/default/debug/lwip-1.4.1/src/netif/ppp/chpms.o
 .debug_line    0x00006ff8       0x1d build/default/debug/lwip-1.4.1/src/netif/ppp/pap.o
 .debug_line    0x00007015       0x1d build/default/debug/lwip-1.4.1/src/netif/ppp/randm.o
 .debug_line    0x00007032       0x1d build/default/debug/lwip-1.4.1/src/netif/ppp/lcp.o
 .debug_line    0x0000704f       0x1d build/default/debug/lwip-1.4.1/src/netif/ppp/ppp.o
 .debug_line    0x0000706c      0x392 build/default/debug/lwip-1.4.1/src/netif/etharp.o
 .debug_line    0x000073fe       0x1d build/default/debug/lwip-1.4.1/src/netif/ethernetif.o
 .debug_line    0x0000741b       0x1d build/default/debug/lwip-1.4.1/src/netif/slipif.o
 .debug_line    0x00007438      0x294 build/default/debug/src/main.o
 .debug_line    0x000076cc      0x24f build/default/debug/src/ip_lwip.o
 .debug_line    0x0000791b      0x1bb build/default/debug/src/echo.o
 .debug_line    0x00007ad6       0x6e /opt/microchip/xc32/v1.22/bin/../lib/gcc/pic32mx/4.5.2/../../../../pic32mx/lib/libmchp_peripheral.a(read_core_timer_lib.o)
 .debug_line    0x00007b44       0x80 /opt/microchip/xc32/v1.22/bin/../lib/gcc/pic32mx/4.5.2/../../../../pic32mx/lib/libmchp_peripheral_32MX795F512L.a(eth_ack_packet_lib.o)
 .debug_line    0x00007bc4       0x85 /opt/microchip/xc32/v1.22/bin/../lib/gcc/pic32mx/4.5.2/../../../../pic32mx/lib/libmchp_peripheral_32MX795F512L.a(eth_descriptors_add_lib.o)
 .debug_line    0x00007c49       0x77 /opt/microchip/xc32/v1.22/bin/../lib/gcc/pic32mx/4.5.2/../../../../pic32mx/lib/libmchp_peripheral_32MX795F512L.a(eth_init_lib.o)
 .debug_line    0x00007cc0       0x69 /opt/microchip/xc32/v1.22/bin/../lib/gcc/pic32mx/4.5.2/../../../../pic32mx/lib/libmchp_peripheral_32MX795F512L.a(eth_mac_open_lib.o)
 .debug_line    0x00007d29       0x74 /opt/microchip/xc32/v1.22/bin/../lib/gcc/pic32mx/4.5.2/../../../../pic32mx/lib/libmchp_peripheral_32MX795F512L.a(eth_mac_set_address_max_lib.o)
 .debug_line    0x00007d9d       0x87 /opt/microchip/xc32/v1.22/bin/../lib/gcc/pic32mx/4.5.2/../../../../pic32mx/lib/libmchp_peripheral_32MX795F512L.a(eth_rx_buffers_append_lib.o)
 .debug_line    0x00007e24       0x6b /opt/microchip/xc32/v1.22/bin/../lib/gcc/pic32mx/4.5.2/../../../../pic32mx/lib/libmchp_peripheral_32MX795F512L.a(eth_rx_filters_lib.o)
 .debug_line    0x00007e8f       0x6e /opt/microchip/xc32/v1.22/bin/../lib/gcc/pic32mx/4.5.2/../../../../pic32mx/lib/libmchp_peripheral_32MX795F512L.a(eth_rx_get_packet_lib.o)
 .debug_line    0x00007efd       0x73 /opt/microchip/xc32/v1.22/bin/../lib/gcc/pic32mx/4.5.2/../../../../pic32mx/lib/libmchp_peripheral_32MX795F512L.a(eth_rx_set_buffer_size_lib.o)
 .debug_line    0x00007f70       0x7f /opt/microchip/xc32/v1.22/bin/../lib/gcc/pic32mx/4.5.2/../../../../pic32mx/lib/libmchp_peripheral_32MX795F512L.a(eth_tx_packet_lib.o)
 .debug_line    0x00007fef       0x87 /opt/microchip/xc32/v1.22/bin/../lib/gcc/pic32mx/4.5.2/../../../../pic32mx/lib/libmchp_peripheral_32MX795F512L.a(_eth_append_busy_list_lib.o)
 .debug_line    0x00008076       0x68 /opt/microchip/xc32/v1.22/bin/../lib/gcc/pic32mx/4.5.2/../../../../pic32mx/lib/libmchp_peripheral_32MX795F512L.a(eth_miim_access.o)
 .debug_line    0x000080de       0x64 /opt/microchip/xc32/v1.22/bin/../lib/gcc/pic32mx/4.5.2/../../../../pic32mx/lib/libmchp_peripheral_32MX795F512L.a(int_tbl_lib.o)
 .debug_line    0x00008142       0x77 /opt/microchip/xc32/v1.22/bin/../lib/gcc/pic32mx/4.5.2/../../../../pic32mx/lib/libmchp_peripheral_32MX795F512L.a(port_set_pins_digital_in_lib.o)
 .debug_line    0x000081b9       0x78 /opt/microchip/xc32/v1.22/bin/../lib/gcc/pic32mx/4.5.2/../../../../pic32mx/lib/libmchp_peripheral_32MX795F512L.a(port_set_pins_digital_out_lib.o)
 .debug_line    0x00008231        0x0 /opt/microchip/xc32/v1.22/bin/../lib/gcc/pic32mx/4.5.2/../../../../pic32mx/lib/libmchp_peripheral_32MX795F512L.a(_ports_tbl_libp.o)
 .debug_line    0x00008231       0x97 /opt/microchip/xc32/v1.22/bin/../lib/gcc/pic32mx/4.5.2/../../../../pic32mx/lib/libpic32.a(default-bootstrap-exception-handler.o)
 .debug_line    0x000082c8       0x84 /opt/microchip/xc32/v1.22/bin/../lib/gcc/pic32mx/4.5.2/../../../../pic32mx/lib/libpic32.a(default-on-reset.o)
 .debug_line    0x0000834c       0x88 /opt/microchip/xc32/v1.22/bin/../lib/gcc/pic32mx/4.5.2/../../../../pic32mx/lib/libpic32.a(default-on-bootstrap.o)
 .debug_line    0x000083d4       0x95 /opt/microchip/xc32/v1.22/bin/../lib/gcc/pic32mx/4.5.2/../../../../pic32mx/lib/libpic32.a(default-general-exception-handler.o)
 .debug_line    0x00008469       0x96 /opt/microchip/xc32/v1.22/bin/../lib/gcc/pic32mx/4.5.2/../../../../pic32mx/lib/libpic32.a(defaultinterrupt.o)
 .debug_line    0x000084ff       0x80 /opt/microchip/xc32/v1.22/bin/../lib/gcc/pic32mx/4.5.2/../../../../pic32mx/lib/libdebug.a(db_utils.o)
 .debug_line    0x0000857f        0x0 /opt/microchip/xc32/v1.22/bin/../lib/gcc/pic32mx/4.5.2/../../../../pic32mx/lib/libpic32.a(xc32_uart.o)
 .debug_line    0x0000857f        0x0 /opt/microchip/xc32/v1.22/bin/../lib/gcc/pic32mx/4.5.2/../../../../pic32mx/lib/libc.a(_iob.o)
 .debug_line    0x0000857f       0x80 /opt/microchip/xc32/v1.22/bin/../lib/gcc/pic32mx/4.5.2/../../../../pic32mx/lib/libc.a(calloc.o)
 .debug_line    0x000085ff       0x80 /opt/microchip/xc32/v1.22/bin/../lib/gcc/pic32mx/4.5.2/../../../../pic32mx/lib/libc.a(malloc.o)
 .debug_line    0x0000867f       0x7e /opt/microchip/xc32/v1.22/bin/../lib/gcc/pic32mx/4.5.2/../../../../pic32mx/lib/libc.a(puts.o)
 .debug_line    0x000086fd       0x7e /opt/microchip/xc32/v1.22/bin/../lib/gcc/pic32mx/4.5.2/../../../../pic32mx/lib/libc.a(rand.o)
 .debug_line    0x0000877b       0x80 /opt/microchip/xc32/v1.22/bin/../lib/gcc/pic32mx/4.5.2/../../../../pic32mx/lib/libc.a(setbuf.o)
 .debug_line    0x000087fb       0x81 /opt/microchip/xc32/v1.22/bin/../lib/gcc/pic32mx/4.5.2/../../../../pic32mx/lib/libc.a(strncmp.o)
 .debug_line    0x0000887c       0x80 /opt/microchip/xc32/v1.22/bin/../lib/gcc/pic32mx/4.5.2/../../../../pic32mx/lib/libc.a(printf_cdnopsuxX.eo)
 .debug_line    0x000088fc       0x80 /opt/microchip/xc32/v1.22/bin/../lib/gcc/pic32mx/4.5.2/../../../../pic32mx/lib/libc.a(printf.o)
 .debug_line    0x0000897c       0x7f /opt/microchip/xc32/v1.22/bin/../lib/gcc/pic32mx/4.5.2/../../../../pic32mx/lib/libc.a(_fputc_simple.o)
 .debug_line    0x000089fb       0x7d /opt/microchip/xc32/v1.22/bin/../lib/gcc/pic32mx/4.5.2/../../../../pic32mx/lib/libc.a(buf.o)
 .debug_line    0x00008a78        0x0 /opt/microchip/xc32/v1.22/bin/../lib/gcc/pic32mx/4.5.2/../../../../pic32mx/lib/libc.a(errno.o)
 .debug_line    0x00008a78       0x80 /opt/microchip/xc32/v1.22/bin/../lib/gcc/pic32mx/4.5.2/../../../../pic32mx/lib/libc.a(doprnt_cdnopsuxX.eo)
 .debug_line    0x00008af8       0x80 /opt/microchip/xc32/v1.22/bin/../lib/gcc/pic32mx/4.5.2/../../../../pic32mx/lib/libc.a(doprnt.o)
 .debug_line    0x00008b78       0x80 /opt/microchip/xc32/v1.22/bin/../lib/gcc/pic32mx/4.5.2/../../../../pic32mx/lib/libc.a(_flsbuf_simple.o)
 .debug_line    0x00008bf8        0x0 /opt/microchip/xc32/v1.22/bin/../lib/gcc/pic32mx/4.5.2/../../../../pic32mx/lib/libc.a(ctype.o)
 .debug_line    0x00008bf8        0x0 /opt/microchip/xc32/v1.22/bin/../lib/gcc/pic32mx/4.5.2/../../../../pic32mx/lib/libc.a(powersf.o)
 .debug_line    0x00008bf8       0x78 /opt/microchip/xc32/v1.22/bin/../lib/gcc/pic32mx/4.5.2/../../../../pic32mx/lib/libpic32.a(sbrk.o)
 .debug_line    0x00008c70       0x79 /opt/microchip/xc32/v1.22/bin/../lib/gcc/pic32mx/4.5.2/../../../../pic32mx/lib/libpic32.a(write.o)
 .debug_line    0x00008ce9       0x93 /opt/microchip/xc32/v1.22/bin/../lib/gcc/pic32mx/4.5.2/../../../../pic32mx/lib/libe.a(_floatdisf.o)
 .debug_line    0x00008d7c       0xc3 /opt/microchip/xc32/v1.22/bin/../lib/gcc/pic32mx/4.5.2/libgcc.a(_floatundisf.o)
 .debug_line    0x00008e3f      0x116 /opt/microchip/xc32/v1.22/bin/../lib/gcc/pic32mx/4.5.2/libgcc.a(_udivdi3.o)
 .debug_line    0x00008f55      0x117 /opt/microchip/xc32/v1.22/bin/../lib/gcc/pic32mx/4.5.2/libgcc.a(_umoddi3.o)
 .debug_line    0x0000906c       0x6d /opt/microchip/xc32/v1.22/bin/../lib/gcc/pic32mx/4.5.2/libgcc.a(floatunsisf.o)

.debug_frame    0x00000000     0x4b60
 *(.debug_frame)
 .debug_frame   0x00000000       0xd4 build/default/debug/contrib/ports/microchip/netif/ETHPIC32ExtPhyDP83848.o
 .debug_frame   0x000000d4      0x1cc build/default/debug/contrib/ports/microchip/netif/Microchip_eth.o
 .debug_frame   0x000002a0      0x1b4 build/default/debug/contrib/ports/microchip/netif/ETHPIC32ExtPhy.o
 .debug_frame   0x00000454       0xb8 build/default/debug/contrib/ports/microchip/sys_arch_raw.o
 .debug_frame   0x0000050c      0x278 build/default/debug/contrib/ports/microchip/sys_arch.o
 .debug_frame   0x00000784      0x144 build/default/debug/contrib/ports/microchip/ethernetif.o
 .debug_frame   0x000008c8       0x9c build/default/debug/freertos/heap/heap_3.o
 .debug_frame   0x00000964      0x208 build/default/debug/freertos/timers.o
 .debug_frame   0x00000b6c      0x224 build/default/debug/freertos/port.o
 .debug_frame   0x00000d90       0xf0 build/default/debug/freertos/list.o
 .debug_frame   0x00000e80      0x5dc build/default/debug/freertos/tasks.o
 .debug_frame   0x0000145c      0x128 build/default/debug/freertos/croutine.o
 .debug_frame   0x00001584      0x30c build/default/debug/freertos/queue.o
 .debug_frame   0x00001890      0x324 build/default/debug/lwip-1.4.1/src/api/api_msg.o
 .debug_frame   0x00001bb4      0x10c build/default/debug/lwip-1.4.1/src/api/netbuf.o
 .debug_frame   0x00001cc0      0x1d0 build/default/debug/lwip-1.4.1/src/api/tcpip.o
 .debug_frame   0x00001e90      0x3b4 build/default/debug/lwip-1.4.1/src/api/sockets.o
 .debug_frame   0x00002244      0x25c build/default/debug/lwip-1.4.1/src/api/api_lib.o
 .debug_frame   0x000024a0       0xb8 build/default/debug/lwip-1.4.1/src/core/ipv4/ip_addr.o
 .debug_frame   0x00002558       0x9c build/default/debug/lwip-1.4.1/src/core/ipv4/inet_chksum.o
 .debug_frame   0x000025f4       0x80 build/default/debug/lwip-1.4.1/src/core/ipv4/icmp.o
 .debug_frame   0x00002674      0x14c build/default/debug/lwip-1.4.1/src/core/ipv4/ip_frag.o
 .debug_frame   0x000027c0       0x80 build/default/debug/lwip-1.4.1/src/core/ipv4/ip.o
 .debug_frame   0x00002840      0x17c build/default/debug/lwip-1.4.1/src/core/timers.o
 .debug_frame   0x000029bc       0xb8 build/default/debug/lwip-1.4.1/src/core/memp.o
 .debug_frame   0x00002a74      0x198 build/default/debug/lwip-1.4.1/src/core/netif.o
 .debug_frame   0x00002c0c      0x2b0 build/default/debug/lwip-1.4.1/src/core/pbuf.o
 .debug_frame   0x00002ebc      0x10c build/default/debug/lwip-1.4.1/src/core/mem.o
 .debug_frame   0x00002fc8      0x378 build/default/debug/lwip-1.4.1/src/core/dhcp.o
 .debug_frame   0x00003340      0x1f4 build/default/debug/lwip-1.4.1/src/core/tcp_out.o
 .debug_frame   0x00003534       0xe4 build/default/debug/lwip-1.4.1/src/core/tcp_in.o
 .debug_frame   0x00003618       0x80 build/default/debug/lwip-1.4.1/src/core/def.o
 .debug_frame   0x00003698      0x160 build/default/debug/lwip-1.4.1/src/core/udp.o
 .debug_frame   0x000037f8       0xb8 build/default/debug/lwip-1.4.1/src/core/init.o
 .debug_frame   0x000038b0       0x80 build/default/debug/lwip-1.4.1/src/core/sys.o
 .debug_frame   0x00003930      0x41c build/default/debug/lwip-1.4.1/src/core/tcp.o
 .debug_frame   0x00003d4c      0x1b4 build/default/debug/lwip-1.4.1/src/netif/etharp.o
 .debug_frame   0x00003f00       0x9c build/default/debug/src/main.o
 .debug_frame   0x00003f9c       0xd4 build/default/debug/src/ip_lwip.o
 .debug_frame   0x00004070       0xbc build/default/debug/src/echo.o
 .debug_frame   0x0000412c       0x20 /opt/microchip/xc32/v1.22/bin/../lib/gcc/pic32mx/4.5.2/../../../../pic32mx/lib/libmchp_peripheral.a(read_core_timer_lib.o)
 .debug_frame   0x0000414c       0xb8 /opt/microchip/xc32/v1.22/bin/../lib/gcc/pic32mx/4.5.2/../../../../pic32mx/lib/libmchp_peripheral_32MX795F512L.a(eth_ack_packet_lib.o)
 .debug_frame   0x00004204       0x54 /opt/microchip/xc32/v1.22/bin/../lib/gcc/pic32mx/4.5.2/../../../../pic32mx/lib/libmchp_peripheral_32MX795F512L.a(eth_descriptors_add_lib.o)
 .debug_frame   0x00004258       0x28 /opt/microchip/xc32/v1.22/bin/../lib/gcc/pic32mx/4.5.2/../../../../pic32mx/lib/libmchp_peripheral_32MX795F512L.a(eth_init_lib.o)
 .debug_frame   0x00004280       0x20 /opt/microchip/xc32/v1.22/bin/../lib/gcc/pic32mx/4.5.2/../../../../pic32mx/lib/libmchp_peripheral_32MX795F512L.a(eth_mac_open_lib.o)
 .debug_frame   0x000042a0       0x50 /opt/microchip/xc32/v1.22/bin/../lib/gcc/pic32mx/4.5.2/../../../../pic32mx/lib/libmchp_peripheral_32MX795F512L.a(eth_mac_set_address_max_lib.o)
 .debug_frame   0x000042f0       0x28 /opt/microchip/xc32/v1.22/bin/../lib/gcc/pic32mx/4.5.2/../../../../pic32mx/lib/libmchp_peripheral_32MX795F512L.a(eth_rx_buffers_append_lib.o)
 .debug_frame   0x00004318       0x70 /opt/microchip/xc32/v1.22/bin/../lib/gcc/pic32mx/4.5.2/../../../../pic32mx/lib/libmchp_peripheral_32MX795F512L.a(eth_rx_filters_lib.o)
 .debug_frame   0x00004388       0x3c /opt/microchip/xc32/v1.22/bin/../lib/gcc/pic32mx/4.5.2/../../../../pic32mx/lib/libmchp_peripheral_32MX795F512L.a(eth_rx_get_packet_lib.o)
 .debug_frame   0x000043c4       0x20 /opt/microchip/xc32/v1.22/bin/../lib/gcc/pic32mx/4.5.2/../../../../pic32mx/lib/libmchp_peripheral_32MX795F512L.a(eth_rx_set_buffer_size_lib.o)
 .debug_frame   0x000043e4       0x8c /opt/microchip/xc32/v1.22/bin/../lib/gcc/pic32mx/4.5.2/../../../../pic32mx/lib/libmchp_peripheral_32MX795F512L.a(eth_tx_packet_lib.o)
 .debug_frame   0x00004470       0x20 /opt/microchip/xc32/v1.22/bin/../lib/gcc/pic32mx/4.5.2/../../../../pic32mx/lib/libmchp_peripheral_32MX795F512L.a(_eth_append_busy_list_lib.o)
 .debug_frame   0x00004490       0x70 /opt/microchip/xc32/v1.22/bin/../lib/gcc/pic32mx/4.5.2/../../../../pic32mx/lib/libmchp_peripheral_32MX795F512L.a(eth_miim_access.o)
 .debug_frame   0x00004500       0xa0 /opt/microchip/xc32/v1.22/bin/../lib/gcc/pic32mx/4.5.2/../../../../pic32mx/lib/libmchp_peripheral_32MX795F512L.a(int_tbl_lib.o)
 .debug_frame   0x000045a0       0x20 /opt/microchip/xc32/v1.22/bin/../lib/gcc/pic32mx/4.5.2/../../../../pic32mx/lib/libmchp_peripheral_32MX795F512L.a(port_set_pins_digital_in_lib.o)
 .debug_frame   0x000045c0       0x20 /opt/microchip/xc32/v1.22/bin/../lib/gcc/pic32mx/4.5.2/../../../../pic32mx/lib/libmchp_peripheral_32MX795F512L.a(port_set_pins_digital_out_lib.o)
 .debug_frame   0x000045e0       0x20 /opt/microchip/xc32/v1.22/bin/../lib/gcc/pic32mx/4.5.2/../../../../pic32mx/lib/libpic32.a(default-bootstrap-exception-handler.o)
 .debug_frame   0x00004600       0x20 /opt/microchip/xc32/v1.22/bin/../lib/gcc/pic32mx/4.5.2/../../../../pic32mx/lib/libpic32.a(default-on-reset.o)
 .debug_frame   0x00004620       0x20 /opt/microchip/xc32/v1.22/bin/../lib/gcc/pic32mx/4.5.2/../../../../pic32mx/lib/libpic32.a(default-on-bootstrap.o)
 .debug_frame   0x00004640       0x20 /opt/microchip/xc32/v1.22/bin/../lib/gcc/pic32mx/4.5.2/../../../../pic32mx/lib/libpic32.a(default-general-exception-handler.o)
 .debug_frame   0x00004660       0x20 /opt/microchip/xc32/v1.22/bin/../lib/gcc/pic32mx/4.5.2/../../../../pic32mx/lib/libpic32.a(defaultinterrupt.o)
 .debug_frame   0x00004680       0x88 /opt/microchip/xc32/v1.22/bin/../lib/gcc/pic32mx/4.5.2/../../../../pic32mx/lib/libdebug.a(db_utils.o)
 .debug_frame   0x00004708       0x2c /opt/microchip/xc32/v1.22/bin/../lib/gcc/pic32mx/4.5.2/../../../../pic32mx/lib/libc.a(calloc.o)
 .debug_frame   0x00004734       0x6c /opt/microchip/xc32/v1.22/bin/../lib/gcc/pic32mx/4.5.2/../../../../pic32mx/lib/libc.a(malloc.o)
 .debug_frame   0x000047a0       0x48 /opt/microchip/xc32/v1.22/bin/../lib/gcc/pic32mx/4.5.2/../../../../pic32mx/lib/libc.a(puts.o)
 .debug_frame   0x000047e8       0x30 /opt/microchip/xc32/v1.22/bin/../lib/gcc/pic32mx/4.5.2/../../../../pic32mx/lib/libc.a(rand.o)
 .debug_frame   0x00004818       0x38 /opt/microchip/xc32/v1.22/bin/../lib/gcc/pic32mx/4.5.2/../../../../pic32mx/lib/libc.a(setbuf.o)
 .debug_frame   0x00004850       0x20 /opt/microchip/xc32/v1.22/bin/../lib/gcc/pic32mx/4.5.2/../../../../pic32mx/lib/libc.a(strncmp.o)
 .debug_frame   0x00004870       0x28 /opt/microchip/xc32/v1.22/bin/../lib/gcc/pic32mx/4.5.2/../../../../pic32mx/lib/libc.a(printf_cdnopsuxX.eo)
 .debug_frame   0x00004898       0x28 /opt/microchip/xc32/v1.22/bin/../lib/gcc/pic32mx/4.5.2/../../../../pic32mx/lib/libc.a(printf.o)
 .debug_frame   0x000048c0       0x2c /opt/microchip/xc32/v1.22/bin/../lib/gcc/pic32mx/4.5.2/../../../../pic32mx/lib/libc.a(_fputc_simple.o)
 .debug_frame   0x000048ec       0x38 /opt/microchip/xc32/v1.22/bin/../lib/gcc/pic32mx/4.5.2/../../../../pic32mx/lib/libc.a(buf.o)
 .debug_frame   0x00004924       0x38 /opt/microchip/xc32/v1.22/bin/../lib/gcc/pic32mx/4.5.2/../../../../pic32mx/lib/libc.a(doprnt_cdnopsuxX.eo)
 .debug_frame   0x0000495c       0x74 /opt/microchip/xc32/v1.22/bin/../lib/gcc/pic32mx/4.5.2/../../../../pic32mx/lib/libc.a(doprnt.o)
 .debug_frame   0x000049d0       0x28 /opt/microchip/xc32/v1.22/bin/../lib/gcc/pic32mx/4.5.2/../../../../pic32mx/lib/libc.a(_flsbuf_simple.o)
 .debug_frame   0x000049f8       0x8c /opt/microchip/xc32/v1.22/bin/../lib/gcc/pic32mx/4.5.2/../../../../pic32mx/lib/libpic32.a(sbrk.o)
 .debug_frame   0x00004a84       0x28 /opt/microchip/xc32/v1.22/bin/../lib/gcc/pic32mx/4.5.2/../../../../pic32mx/lib/libpic32.a(write.o)
 .debug_frame   0x00004aac       0x20 /opt/microchip/xc32/v1.22/bin/../lib/gcc/pic32mx/4.5.2/../../../../pic32mx/lib/libe.a(_floatdisf.o)
 .debug_frame   0x00004acc       0x2c /opt/microchip/xc32/v1.22/bin/../lib/gcc/pic32mx/4.5.2/libgcc.a(_floatundisf.o)
 .debug_frame   0x00004af8       0x20 /opt/microchip/xc32/v1.22/bin/../lib/gcc/pic32mx/4.5.2/libgcc.a(_udivdi3.o)
 .debug_frame   0x00004b18       0x20 /opt/microchip/xc32/v1.22/bin/../lib/gcc/pic32mx/4.5.2/libgcc.a(_umoddi3.o)
 .debug_frame   0x00004b38       0x28 /opt/microchip/xc32/v1.22/bin/../lib/gcc/pic32mx/4.5.2/libgcc.a(floatunsisf.o)

.debug_str      0x00000000     0x15aa
 *(.debug_str)
 .debug_str     0x00000000      0x12f build/default/debug/contrib/ports/microchip/netif/ETHPIC32ExtPhyDP83848.o
 .debug_str     0x0000012f        0x0 build/default/debug/contrib/ports/microchip/netif/xadapter.o
 .debug_str     0x0000012f       0xdd build/default/debug/contrib/ports/microchip/netif/Microchip_eth.o
 .debug_str     0x0000020c      0x1bd build/default/debug/contrib/ports/microchip/netif/ETHPIC32ExtPhy.o
 .debug_str     0x000003c9        0x0 build/default/debug/contrib/ports/microchip/sys_arch_raw.o
 .debug_str     0x000003c9       0x87 build/default/debug/contrib/ports/microchip/sys_arch.o
 .debug_str     0x00000450      0x14d build/default/debug/contrib/ports/microchip/ethernetif.o
 .debug_str     0x0000059d        0x0 build/default/debug/freertos/heap/heap_3.o
 .debug_str     0x0000059d       0xbf build/default/debug/freertos/timers.o
 .debug_str     0x0000065c      0x1cf build/default/debug/freertos/port.o
 .debug_str     0x0000082b       0x2b build/default/debug/freertos/list.o
 .debug_str     0x00000856      0x2ed build/default/debug/freertos/tasks.o
 .debug_str     0x00000b43      0x13a build/default/debug/freertos/croutine.o
 .debug_str     0x00000c7d       0xf1 build/default/debug/freertos/queue.o
 .debug_str     0x00000d6e       0x52 build/default/debug/lwip-1.4.1/src/api/api_msg.o
 .debug_str     0x00000dc0        0x0 build/default/debug/lwip-1.4.1/src/api/netbuf.o
 .debug_str     0x00000dc0        0x0 build/default/debug/lwip-1.4.1/src/api/netdb.o
 .debug_str     0x00000dc0        0x9 build/default/debug/lwip-1.4.1/src/api/tcpip.o
 .debug_str     0x00000dc9       0xbf build/default/debug/lwip-1.4.1/src/api/sockets.o
 .debug_str     0x00000e88        0x0 build/default/debug/lwip-1.4.1/src/api/netifapi.o
 .debug_str     0x00000e88        0x0 build/default/debug/lwip-1.4.1/src/api/err.o
 .debug_str     0x00000e88       0x64 build/default/debug/lwip-1.4.1/src/api/api_lib.o
 .debug_str     0x00000eec        0x0 build/default/debug/lwip-1.4.1/src/core/ipv4/autoip.o
 .debug_str     0x00000eec        0x0 build/default/debug/lwip-1.4.1/src/core/ipv4/ip_addr.o
 .debug_str     0x00000eec       0x12 build/default/debug/lwip-1.4.1/src/core/ipv4/inet_chksum.o
 .debug_str     0x00000efe       0x25 build/default/debug/lwip-1.4.1/src/core/ipv4/icmp.o
 .debug_str     0x00000f23        0x0 build/default/debug/lwip-1.4.1/src/core/ipv4/inet.o
 .debug_str     0x00000f23       0x14 build/default/debug/lwip-1.4.1/src/core/ipv4/ip_frag.o
 .debug_str     0x00000f37       0x67 build/default/debug/lwip-1.4.1/src/core/ipv4/ip.o
 .debug_str     0x00000f9e        0x0 build/default/debug/lwip-1.4.1/src/core/ipv4/igmp.o
 .debug_str     0x00000f9e        0x0 build/default/debug/lwip-1.4.1/src/core/snmp/asn1_enc.o
 .debug_str     0x00000f9e        0x0 build/default/debug/lwip-1.4.1/src/core/snmp/msg_out.o
 .debug_str     0x00000f9e        0x0 build/default/debug/lwip-1.4.1/src/core/snmp/mib2.o
 .debug_str     0x00000f9e        0x0 build/default/debug/lwip-1.4.1/src/core/snmp/asn1_dec.o
 .debug_str     0x00000f9e        0x0 build/default/debug/lwip-1.4.1/src/core/snmp/msg_in.o
 .debug_str     0x00000f9e        0x0 build/default/debug/lwip-1.4.1/src/core/snmp/mib_structs.o
 .debug_str     0x00000f9e       0x24 build/default/debug/lwip-1.4.1/src/core/timers.o
 .debug_str     0x00000fc2        0xa build/default/debug/lwip-1.4.1/src/core/memp.o
 .debug_str     0x00000fcc       0xaf build/default/debug/lwip-1.4.1/src/core/netif.o
 .debug_str     0x0000107b       0x53 build/default/debug/lwip-1.4.1/src/core/pbuf.o
 .debug_str     0x000010ce        0x9 build/default/debug/lwip-1.4.1/src/core/mem.o
 .debug_str     0x000010d7       0x77 build/default/debug/lwip-1.4.1/src/core/dhcp.o
 .debug_str     0x0000114e       0x7d build/default/debug/lwip-1.4.1/src/core/tcp_out.o
 .debug_str     0x000011cb        0x0 build/default/debug/lwip-1.4.1/src/core/stats.o
 .debug_str     0x000011cb       0xce build/default/debug/lwip-1.4.1/src/core/tcp_in.o
 .debug_str     0x00001299        0x0 build/default/debug/lwip-1.4.1/src/core/def.o
 .debug_str     0x00001299        0x0 build/default/debug/lwip-1.4.1/src/core/raw.o
 .debug_str     0x00001299        0x0 build/default/debug/lwip-1.4.1/src/core/dns.o
 .debug_str     0x00001299       0x46 build/default/debug/lwip-1.4.1/src/core/udp.o
 .debug_str     0x000012df        0x0 build/default/debug/lwip-1.4.1/src/core/init.o
 .debug_str     0x000012df        0x0 build/default/debug/lwip-1.4.1/src/core/sys.o
 .debug_str     0x000012df      0x118 build/default/debug/lwip-1.4.1/src/core/tcp.o
 .debug_str     0x000013f7        0x0 build/default/debug/lwip-1.4.1/src/netif/ppp/ppp_oe.o
 .debug_str     0x000013f7        0x0 build/default/debug/lwip-1.4.1/src/netif/ppp/chap.o
 .debug_str     0x000013f7        0x0 build/default/debug/lwip-1.4.1/src/netif/ppp/vj.o
 .debug_str     0x000013f7        0x0 build/default/debug/lwip-1.4.1/src/netif/ppp/ipcp.o
 .debug_str     0x000013f7        0x0 build/default/debug/lwip-1.4.1/src/netif/ppp/fsm.o
 .debug_str     0x000013f7        0x0 build/default/debug/lwip-1.4.1/src/netif/ppp/md5.o
 .debug_str     0x000013f7        0x0 build/default/debug/lwip-1.4.1/src/netif/ppp/magic.o
 .debug_str     0x000013f7        0x0 build/default/debug/lwip-1.4.1/src/netif/ppp/auth.o
 .debug_str     0x000013f7        0x0 build/default/debug/lwip-1.4.1/src/netif/ppp/chpms.o
 .debug_str     0x000013f7        0x0 build/default/debug/lwip-1.4.1/src/netif/ppp/pap.o
 .debug_str     0x000013f7        0x0 build/default/debug/lwip-1.4.1/src/netif/ppp/randm.o
 .debug_str     0x000013f7        0x0 build/default/debug/lwip-1.4.1/src/netif/ppp/lcp.o
 .debug_str     0x000013f7        0x0 build/default/debug/lwip-1.4.1/src/netif/ppp/ppp.o
 .debug_str     0x000013f7       0x35 build/default/debug/lwip-1.4.1/src/netif/etharp.o
 .debug_str     0x0000142c        0x0 build/default/debug/lwip-1.4.1/src/netif/ethernetif.o
 .debug_str     0x0000142c        0x0 build/default/debug/lwip-1.4.1/src/netif/slipif.o
 .debug_str     0x0000142c      0x14c build/default/debug/src/main.o
 .debug_str     0x00001578       0x1c build/default/debug/src/ip_lwip.o
 .debug_str     0x00001594       0x16 build/default/debug/src/echo.o
 .debug_str     0x000015aa        0x0 /opt/microchip/xc32/v1.22/bin/../lib/gcc/pic32mx/4.5.2/../../../../pic32mx/lib/libmchp_peripheral.a(read_core_timer_lib.o)
 .debug_str     0x000015aa        0x0 /opt/microchip/xc32/v1.22/bin/../lib/gcc/pic32mx/4.5.2/../../../../pic32mx/lib/libmchp_peripheral_32MX795F512L.a(eth_ack_packet_lib.o)
 .debug_str     0x000015aa        0x0 /opt/microchip/xc32/v1.22/bin/../lib/gcc/pic32mx/4.5.2/../../../../pic32mx/lib/libmchp_peripheral_32MX795F512L.a(eth_descriptors_add_lib.o)
 .debug_str     0x000015aa        0x0 /opt/microchip/xc32/v1.22/bin/../lib/gcc/pic32mx/4.5.2/../../../../pic32mx/lib/libmchp_peripheral_32MX795F512L.a(eth_init_lib.o)
 .debug_str     0x000015aa        0x0 /opt/microchip/xc32/v1.22/bin/../lib/gcc/pic32mx/4.5.2/../../../../pic32mx/lib/libmchp_peripheral_32MX795F512L.a(eth_mac_open_lib.o)
 .debug_str     0x000015aa        0x0 /opt/microchip/xc32/v1.22/bin/../lib/gcc/pic32mx/4.5.2/../../../../pic32mx/lib/libmchp_peripheral_32MX795F512L.a(eth_mac_set_address_max_lib.o)
 .debug_str     0x000015aa        0x0 /opt/microchip/xc32/v1.22/bin/../lib/gcc/pic32mx/4.5.2/../../../../pic32mx/lib/libmchp_peripheral_32MX795F512L.a(eth_rx_buffers_append_lib.o)
 .debug_str     0x000015aa        0x0 /opt/microchip/xc32/v1.22/bin/../lib/gcc/pic32mx/4.5.2/../../../../pic32mx/lib/libmchp_peripheral_32MX795F512L.a(eth_rx_filters_lib.o)
 .debug_str     0x000015aa        0x0 /opt/microchip/xc32/v1.22/bin/../lib/gcc/pic32mx/4.5.2/../../../../pic32mx/lib/libmchp_peripheral_32MX795F512L.a(eth_rx_get_packet_lib.o)
 .debug_str     0x000015aa        0x0 /opt/microchip/xc32/v1.22/bin/../lib/gcc/pic32mx/4.5.2/../../../../pic32mx/lib/libmchp_peripheral_32MX795F512L.a(eth_rx_set_buffer_size_lib.o)
 .debug_str     0x000015aa        0x0 /opt/microchip/xc32/v1.22/bin/../lib/gcc/pic32mx/4.5.2/../../../../pic32mx/lib/libmchp_peripheral_32MX795F512L.a(eth_tx_packet_lib.o)
 .debug_str     0x000015aa        0x0 /opt/microchip/xc32/v1.22/bin/../lib/gcc/pic32mx/4.5.2/../../../../pic32mx/lib/libmchp_peripheral_32MX795F512L.a(_eth_append_busy_list_lib.o)
 .debug_str     0x000015aa        0x0 /opt/microchip/xc32/v1.22/bin/../lib/gcc/pic32mx/4.5.2/../../../../pic32mx/lib/libmchp_peripheral_32MX795F512L.a(eth_miim_access.o)
 .debug_str     0x000015aa        0x0 /opt/microchip/xc32/v1.22/bin/../lib/gcc/pic32mx/4.5.2/../../../../pic32mx/lib/libmchp_peripheral_32MX795F512L.a(int_tbl_lib.o)
 .debug_str     0x000015aa        0x0 /opt/microchip/xc32/v1.22/bin/../lib/gcc/pic32mx/4.5.2/../../../../pic32mx/lib/libmchp_peripheral_32MX795F512L.a(port_set_pins_digital_in_lib.o)
 .debug_str     0x000015aa        0x0 /opt/microchip/xc32/v1.22/bin/../lib/gcc/pic32mx/4.5.2/../../../../pic32mx/lib/libmchp_peripheral_32MX795F512L.a(port_set_pins_digital_out_lib.o)
 .debug_str     0x000015aa        0x0 /opt/microchip/xc32/v1.22/bin/../lib/gcc/pic32mx/4.5.2/../../../../pic32mx/lib/libmchp_peripheral_32MX795F512L.a(_ports_tbl_libp.o)
 .debug_str     0x000015aa        0x0 /opt/microchip/xc32/v1.22/bin/../lib/gcc/pic32mx/4.5.2/../../../../pic32mx/lib/libpic32.a(default-bootstrap-exception-handler.o)
 .debug_str     0x000015aa        0x0 /opt/microchip/xc32/v1.22/bin/../lib/gcc/pic32mx/4.5.2/../../../../pic32mx/lib/libpic32.a(default-on-reset.o)
 .debug_str     0x000015aa        0x0 /opt/microchip/xc32/v1.22/bin/../lib/gcc/pic32mx/4.5.2/../../../../pic32mx/lib/libpic32.a(default-on-bootstrap.o)
 .debug_str     0x000015aa        0x0 /opt/microchip/xc32/v1.22/bin/../lib/gcc/pic32mx/4.5.2/../../../../pic32mx/lib/libpic32.a(default-general-exception-handler.o)
 .debug_str     0x000015aa        0x0 /opt/microchip/xc32/v1.22/bin/../lib/gcc/pic32mx/4.5.2/../../../../pic32mx/lib/libpic32.a(defaultinterrupt.o)
 .debug_str     0x000015aa        0x0 /opt/microchip/xc32/v1.22/bin/../lib/gcc/pic32mx/4.5.2/../../../../pic32mx/lib/libdebug.a(db_utils.o)
 .debug_str     0x000015aa        0x0 /opt/microchip/xc32/v1.22/bin/../lib/gcc/pic32mx/4.5.2/../../../../pic32mx/lib/libpic32.a(xc32_uart.o)
 .debug_str     0x000015aa        0x0 /opt/microchip/xc32/v1.22/bin/../lib/gcc/pic32mx/4.5.2/../../../../pic32mx/lib/libc.a(_iob.o)
 .debug_str     0x000015aa        0x0 /opt/microchip/xc32/v1.22/bin/../lib/gcc/pic32mx/4.5.2/../../../../pic32mx/lib/libc.a(calloc.o)
 .debug_str     0x000015aa        0x0 /opt/microchip/xc32/v1.22/bin/../lib/gcc/pic32mx/4.5.2/../../../../pic32mx/lib/libc.a(malloc.o)
 .debug_str     0x000015aa        0x0 /opt/microchip/xc32/v1.22/bin/../lib/gcc/pic32mx/4.5.2/../../../../pic32mx/lib/libc.a(puts.o)
 .debug_str     0x000015aa        0x0 /opt/microchip/xc32/v1.22/bin/../lib/gcc/pic32mx/4.5.2/../../../../pic32mx/lib/libc.a(rand.o)
 .debug_str     0x000015aa        0x0 /opt/microchip/xc32/v1.22/bin/../lib/gcc/pic32mx/4.5.2/../../../../pic32mx/lib/libc.a(setbuf.o)
 .debug_str     0x000015aa        0x0 /opt/microchip/xc32/v1.22/bin/../lib/gcc/pic32mx/4.5.2/../../../../pic32mx/lib/libc.a(strncmp.o)
 .debug_str     0x000015aa        0x0 /opt/microchip/xc32/v1.22/bin/../lib/gcc/pic32mx/4.5.2/../../../../pic32mx/lib/libc.a(printf_cdnopsuxX.eo)
 .debug_str     0x000015aa        0x0 /opt/microchip/xc32/v1.22/bin/../lib/gcc/pic32mx/4.5.2/../../../../pic32mx/lib/libc.a(printf.o)
 .debug_str     0x000015aa        0x0 /opt/microchip/xc32/v1.22/bin/../lib/gcc/pic32mx/4.5.2/../../../../pic32mx/lib/libc.a(_fputc_simple.o)
 .debug_str     0x000015aa        0x0 /opt/microchip/xc32/v1.22/bin/../lib/gcc/pic32mx/4.5.2/../../../../pic32mx/lib/libc.a(buf.o)
 .debug_str     0x000015aa        0x0 /opt/microchip/xc32/v1.22/bin/../lib/gcc/pic32mx/4.5.2/../../../../pic32mx/lib/libc.a(errno.o)
 .debug_str     0x000015aa        0x0 /opt/microchip/xc32/v1.22/bin/../lib/gcc/pic32mx/4.5.2/../../../../pic32mx/lib/libc.a(doprnt_cdnopsuxX.eo)
 .debug_str     0x000015aa        0x0 /opt/microchip/xc32/v1.22/bin/../lib/gcc/pic32mx/4.5.2/../../../../pic32mx/lib/libc.a(doprnt.o)
 .debug_str     0x000015aa        0x0 /opt/microchip/xc32/v1.22/bin/../lib/gcc/pic32mx/4.5.2/../../../../pic32mx/lib/libc.a(_flsbuf_simple.o)
 .debug_str     0x000015aa        0x0 /opt/microchip/xc32/v1.22/bin/../lib/gcc/pic32mx/4.5.2/../../../../pic32mx/lib/libc.a(ctype.o)
 .debug_str     0x000015aa        0x0 /opt/microchip/xc32/v1.22/bin/../lib/gcc/pic32mx/4.5.2/../../../../pic32mx/lib/libc.a(powersf.o)
 .debug_str     0x000015aa        0x0 /opt/microchip/xc32/v1.22/bin/../lib/gcc/pic32mx/4.5.2/../../../../pic32mx/lib/libpic32.a(sbrk.o)
 .debug_str     0x000015aa        0x0 /opt/microchip/xc32/v1.22/bin/../lib/gcc/pic32mx/4.5.2/../../../../pic32mx/lib/libpic32.a(write.o)
 .debug_str     0x000015aa        0x0 /opt/microchip/xc32/v1.22/bin/../lib/gcc/pic32mx/4.5.2/../../../../pic32mx/lib/libe.a(_floatdisf.o)
 .debug_str     0x000015aa        0x0 /opt/microchip/xc32/v1.22/bin/../lib/gcc/pic32mx/4.5.2/libgcc.a(_floatundisf.o)
 .debug_str     0x000015aa        0x0 /opt/microchip/xc32/v1.22/bin/../lib/gcc/pic32mx/4.5.2/libgcc.a(_udivdi3.o)
 .debug_str     0x000015aa        0x0 /opt/microchip/xc32/v1.22/bin/../lib/gcc/pic32mx/4.5.2/libgcc.a(_umoddi3.o)
 .debug_str     0x000015aa        0x0 /opt/microchip/xc32/v1.22/bin/../lib/gcc/pic32mx/4.5.2/libgcc.a(floatunsisf.o)

.debug_loc      0x00000000     0x75ec
 *(.debug_loc)
 .debug_loc     0x00000000      0x134 build/default/debug/contrib/ports/microchip/netif/ETHPIC32ExtPhyDP83848.o
 .debug_loc     0x00000134      0x242 build/default/debug/contrib/ports/microchip/netif/Microchip_eth.o
 .debug_loc     0x00000376      0x29a build/default/debug/contrib/ports/microchip/netif/ETHPIC32ExtPhy.o
 .debug_loc     0x00000610      0x108 build/default/debug/contrib/ports/microchip/sys_arch_raw.o
 .debug_loc     0x00000718      0x3c8 build/default/debug/contrib/ports/microchip/sys_arch.o
 .debug_loc     0x00000ae0      0x1e4 build/default/debug/contrib/ports/microchip/ethernetif.o
 .debug_loc     0x00000cc4       0xdc build/default/debug/freertos/heap/heap_3.o
 .debug_loc     0x00000da0      0x31a build/default/debug/freertos/timers.o
 .debug_loc     0x000010ba      0x344 build/default/debug/freertos/port.o
 .debug_loc     0x000013fe      0x160 build/default/debug/freertos/list.o
 .debug_loc     0x0000155e      0x91c build/default/debug/freertos/tasks.o
 .debug_loc     0x00001e7a      0x1b8 build/default/debug/freertos/croutine.o
 .debug_loc     0x00002032      0x4a4 build/default/debug/freertos/queue.o
 .debug_loc     0x000024d6      0x4d0 build/default/debug/lwip-1.4.1/src/api/api_msg.o
 .debug_loc     0x000029a6      0x18c build/default/debug/lwip-1.4.1/src/api/netbuf.o
 .debug_loc     0x00002b32      0x2c0 build/default/debug/lwip-1.4.1/src/api/tcpip.o
 .debug_loc     0x00002df2      0x5b6 build/default/debug/lwip-1.4.1/src/api/sockets.o
 .debug_loc     0x000033a8      0x39e build/default/debug/lwip-1.4.1/src/api/api_lib.o
 .debug_loc     0x00003746      0x108 build/default/debug/lwip-1.4.1/src/core/ipv4/ip_addr.o
 .debug_loc     0x0000384e       0xdc build/default/debug/lwip-1.4.1/src/core/ipv4/inet_chksum.o
 .debug_loc     0x0000392a       0xb2 build/default/debug/lwip-1.4.1/src/core/ipv4/icmp.o
 .debug_loc     0x000039dc      0x1ea build/default/debug/lwip-1.4.1/src/core/ipv4/ip_frag.o
 .debug_loc     0x00003bc6       0xb0 build/default/debug/lwip-1.4.1/src/core/ipv4/ip.o
 .debug_loc     0x00003c76      0x23c build/default/debug/lwip-1.4.1/src/core/timers.o
 .debug_loc     0x00003eb2      0x108 build/default/debug/lwip-1.4.1/src/core/memp.o
 .debug_loc     0x00003fba      0x268 build/default/debug/lwip-1.4.1/src/core/netif.o
 .debug_loc     0x00004222      0x420 build/default/debug/lwip-1.4.1/src/core/pbuf.o
 .debug_loc     0x00004642      0x18c build/default/debug/lwip-1.4.1/src/core/mem.o
 .debug_loc     0x000047ce      0x558 build/default/debug/lwip-1.4.1/src/core/dhcp.o
 .debug_loc     0x00004d26      0x2c6 build/default/debug/lwip-1.4.1/src/core/tcp_out.o
 .debug_loc     0x00004fec      0x136 build/default/debug/lwip-1.4.1/src/core/tcp_in.o
 .debug_loc     0x00005122       0xb0 build/default/debug/lwip-1.4.1/src/core/def.o
 .debug_loc     0x000051d2      0x212 build/default/debug/lwip-1.4.1/src/core/udp.o
 .debug_loc     0x000053e4      0x108 build/default/debug/lwip-1.4.1/src/core/init.o
 .debug_loc     0x000054ec       0xb0 build/default/debug/lwip-1.4.1/src/core/sys.o
 .debug_loc     0x0000559c      0x65e build/default/debug/lwip-1.4.1/src/core/tcp.o
 .debug_loc     0x00005bfa      0x294 build/default/debug/lwip-1.4.1/src/netif/etharp.o
 .debug_loc     0x00005e8e       0xdc build/default/debug/src/main.o
 .debug_loc     0x00005f6a      0x136 build/default/debug/src/ip_lwip.o
 .debug_loc     0x000060a0      0x10c build/default/debug/src/echo.o
 .debug_loc     0x000061ac       0xc9 /opt/microchip/xc32/v1.22/bin/../lib/gcc/pic32mx/4.5.2/libgcc.a(_floatundisf.o)
 .debug_loc     0x00006275      0x9f9 /opt/microchip/xc32/v1.22/bin/../lib/gcc/pic32mx/4.5.2/libgcc.a(_udivdi3.o)
 .debug_loc     0x00006c6e      0x916 /opt/microchip/xc32/v1.22/bin/../lib/gcc/pic32mx/4.5.2/libgcc.a(_umoddi3.o)
 .debug_loc     0x00007584       0x68 /opt/microchip/xc32/v1.22/bin/../lib/gcc/pic32mx/4.5.2/libgcc.a(floatunsisf.o)

.debug_macinfo
 *(.debug_macinfo)

.debug_weaknames
 *(.debug_weaknames)

.debug_funcnames
 *(.debug_funcnames)

.debug_typenames
 *(.debug_typenames)

.debug_varnames
 *(.debug_varnames)

.debug_pubtypes
                0x00000000     0x32f7
 *(.debug_pubtypes)
 .debug_pubtypes
                0x00000000      0x119 build/default/debug/contrib/ports/microchip/netif/ETHPIC32ExtPhyDP83848.o
 .debug_pubtypes
                0x00000119      0x11e build/default/debug/contrib/ports/microchip/netif/Microchip_eth.o
 .debug_pubtypes
                0x00000237      0x1ae build/default/debug/contrib/ports/microchip/netif/ETHPIC32ExtPhy.o
 .debug_pubtypes
                0x000003e5       0x30 build/default/debug/contrib/ports/microchip/sys_arch_raw.o
 .debug_pubtypes
                0x00000415       0xfa build/default/debug/contrib/ports/microchip/sys_arch.o
 .debug_pubtypes
                0x0000050f      0x23f build/default/debug/contrib/ports/microchip/ethernetif.o
 .debug_pubtypes
                0x0000074e       0x1d build/default/debug/freertos/heap/heap_3.o
 .debug_pubtypes
                0x0000076b      0x18e build/default/debug/freertos/timers.o
 .debug_pubtypes
                0x000008f9      0x1b0 build/default/debug/freertos/port.o
 .debug_pubtypes
                0x00000aa9       0x9a build/default/debug/freertos/list.o
 .debug_pubtypes
                0x00000b43      0x189 build/default/debug/freertos/tasks.o
 .debug_pubtypes
                0x00000ccc      0x10b build/default/debug/freertos/croutine.o
 .debug_pubtypes
                0x00000dd7      0x128 build/default/debug/freertos/queue.o
 .debug_pubtypes
                0x00000eff      0x1f3 build/default/debug/lwip-1.4.1/src/api/api_msg.o
 .debug_pubtypes
                0x000010f2       0x70 build/default/debug/lwip-1.4.1/src/api/netbuf.o
 .debug_pubtypes
                0x00001162       0x12 build/default/debug/lwip-1.4.1/src/api/netdb.o
 .debug_pubtypes
                0x00001174      0x216 build/default/debug/lwip-1.4.1/src/api/tcpip.o
 .debug_pubtypes
                0x0000138a      0x288 build/default/debug/lwip-1.4.1/src/api/sockets.o
 .debug_pubtypes
                0x00001612       0x12 build/default/debug/lwip-1.4.1/src/api/netifapi.o
 .debug_pubtypes
                0x00001624       0x12 build/default/debug/lwip-1.4.1/src/api/err.o
 .debug_pubtypes
                0x00001636      0x1ff build/default/debug/lwip-1.4.1/src/api/api_lib.o
 .debug_pubtypes
                0x00001835       0x12 build/default/debug/lwip-1.4.1/src/core/ipv4/autoip.o
 .debug_pubtypes
                0x00001847       0xcb build/default/debug/lwip-1.4.1/src/core/ipv4/ip_addr.o
 .debug_pubtypes
                0x00001912       0x60 build/default/debug/lwip-1.4.1/src/core/ipv4/inet_chksum.o
 .debug_pubtypes
                0x00001972      0x138 build/default/debug/lwip-1.4.1/src/core/ipv4/icmp.o
 .debug_pubtypes
                0x00001aaa       0x12 build/default/debug/lwip-1.4.1/src/core/ipv4/inet.o
 .debug_pubtypes
                0x00001abc      0x16b build/default/debug/lwip-1.4.1/src/core/ipv4/ip_frag.o
 .debug_pubtypes
                0x00001c27      0x149 build/default/debug/lwip-1.4.1/src/core/ipv4/ip.o
 .debug_pubtypes
                0x00001d70       0x12 build/default/debug/lwip-1.4.1/src/core/ipv4/igmp.o
 .debug_pubtypes
                0x00001d82       0x12 build/default/debug/lwip-1.4.1/src/core/snmp/asn1_enc.o
 .debug_pubtypes
                0x00001d94       0x12 build/default/debug/lwip-1.4.1/src/core/snmp/msg_out.o
 .debug_pubtypes
                0x00001da6       0x12 build/default/debug/lwip-1.4.1/src/core/snmp/mib2.o
 .debug_pubtypes
                0x00001db8       0x12 build/default/debug/lwip-1.4.1/src/core/snmp/asn1_dec.o
 .debug_pubtypes
                0x00001dca       0x12 build/default/debug/lwip-1.4.1/src/core/snmp/msg_in.o
 .debug_pubtypes
                0x00001ddc       0x12 build/default/debug/lwip-1.4.1/src/core/snmp/mib_structs.o
 .debug_pubtypes
                0x00001dee      0x14e build/default/debug/lwip-1.4.1/src/core/timers.o
 .debug_pubtypes
                0x00001f3c       0x60 build/default/debug/lwip-1.4.1/src/core/memp.o
 .debug_pubtypes
                0x00001f9c      0x1fd build/default/debug/lwip-1.4.1/src/core/netif.o
 .debug_pubtypes
                0x00002199      0x17e build/default/debug/lwip-1.4.1/src/core/pbuf.o
 .debug_pubtypes
                0x00002317       0x9b build/default/debug/lwip-1.4.1/src/core/mem.o
 .debug_pubtypes
                0x000023b2      0x120 build/default/debug/lwip-1.4.1/src/core/dhcp.o
 .debug_pubtypes
                0x000024d2      0x194 build/default/debug/lwip-1.4.1/src/core/tcp_out.o
 .debug_pubtypes
                0x00002666       0x12 build/default/debug/lwip-1.4.1/src/core/stats.o
 .debug_pubtypes
                0x00002678      0x1ce build/default/debug/lwip-1.4.1/src/core/tcp_in.o
 .debug_pubtypes
                0x00002846       0x26 build/default/debug/lwip-1.4.1/src/core/def.o
 .debug_pubtypes
                0x0000286c       0x12 build/default/debug/lwip-1.4.1/src/core/raw.o
 .debug_pubtypes
                0x0000287e       0x12 build/default/debug/lwip-1.4.1/src/core/dns.o
 .debug_pubtypes
                0x00002890      0x153 build/default/debug/lwip-1.4.1/src/core/udp.o
 .debug_pubtypes
                0x000029e3       0x12 build/default/debug/lwip-1.4.1/src/core/init.o
 .debug_pubtypes
                0x000029f5       0x65 build/default/debug/lwip-1.4.1/src/core/sys.o
 .debug_pubtypes
                0x00002a5a      0x1a0 build/default/debug/lwip-1.4.1/src/core/tcp.o
 .debug_pubtypes
                0x00002bfa       0x12 build/default/debug/lwip-1.4.1/src/netif/ppp/ppp_oe.o
 .debug_pubtypes
                0x00002c0c       0x12 build/default/debug/lwip-1.4.1/src/netif/ppp/chap.o
 .debug_pubtypes
                0x00002c1e       0x12 build/default/debug/lwip-1.4.1/src/netif/ppp/vj.o
 .debug_pubtypes
                0x00002c30       0x12 build/default/debug/lwip-1.4.1/src/netif/ppp/ipcp.o
 .debug_pubtypes
                0x00002c42       0x12 build/default/debug/lwip-1.4.1/src/netif/ppp/fsm.o
 .debug_pubtypes
                0x00002c54       0x12 build/default/debug/lwip-1.4.1/src/netif/ppp/md5.o
 .debug_pubtypes
                0x00002c66       0x12 build/default/debug/lwip-1.4.1/src/netif/ppp/magic.o
 .debug_pubtypes
                0x00002c78       0x12 build/default/debug/lwip-1.4.1/src/netif/ppp/auth.o
 .debug_pubtypes
                0x00002c8a       0x12 build/default/debug/lwip-1.4.1/src/netif/ppp/chpms.o
 .debug_pubtypes
                0x00002c9c       0x12 build/default/debug/lwip-1.4.1/src/netif/ppp/pap.o
 .debug_pubtypes
                0x00002cae       0x12 build/default/debug/lwip-1.4.1/src/netif/ppp/randm.o
 .debug_pubtypes
                0x00002cc0       0x12 build/default/debug/lwip-1.4.1/src/netif/ppp/lcp.o
 .debug_pubtypes
                0x00002cd2       0x12 build/default/debug/lwip-1.4.1/src/netif/ppp/ppp.o
 .debug_pubtypes
                0x00002ce4      0x194 build/default/debug/lwip-1.4.1/src/netif/etharp.o
 .debug_pubtypes
                0x00002e78       0x12 build/default/debug/lwip-1.4.1/src/netif/ethernetif.o
 .debug_pubtypes
                0x00002e8a       0x12 build/default/debug/lwip-1.4.1/src/netif/slipif.o
 .debug_pubtypes
                0x00002e9c      0x149 build/default/debug/src/main.o
 .debug_pubtypes
                0x00002fe5      0x13e build/default/debug/src/ip_lwip.o
 .debug_pubtypes
                0x00003123       0xae build/default/debug/src/echo.o
 .debug_pubtypes
                0x000031d1       0x40 /opt/microchip/xc32/v1.22/bin/../lib/gcc/pic32mx/4.5.2/libgcc.a(_floatundisf.o)
 .debug_pubtypes
                0x00003211       0x59 /opt/microchip/xc32/v1.22/bin/../lib/gcc/pic32mx/4.5.2/libgcc.a(_udivdi3.o)
 .debug_pubtypes
                0x0000326a       0x59 /opt/microchip/xc32/v1.22/bin/../lib/gcc/pic32mx/4.5.2/libgcc.a(_umoddi3.o)
 .debug_pubtypes
                0x000032c3       0x34 /opt/microchip/xc32/v1.22/bin/../lib/gcc/pic32mx/4.5.2/libgcc.a(floatunsisf.o)

.debug_ranges   0x00000000      0x200
 *(.debug_ranges)
 .debug_ranges  0x00000000       0x10 /opt/microchip/xc32/v1.22/bin/../lib/gcc/pic32mx/4.5.2/../../../../pic32mx/lib/libmchp_peripheral.a(read_core_timer_lib.o)
 .debug_ranges  0x00000010       0x38 /opt/microchip/xc32/v1.22/bin/../lib/gcc/pic32mx/4.5.2/../../../../pic32mx/lib/libmchp_peripheral_32MX795F512L.a(eth_ack_packet_lib.o)
 .debug_ranges  0x00000048       0x18 /opt/microchip/xc32/v1.22/bin/../lib/gcc/pic32mx/4.5.2/../../../../pic32mx/lib/libmchp_peripheral_32MX795F512L.a(eth_descriptors_add_lib.o)
 .debug_ranges  0x00000060       0x10 /opt/microchip/xc32/v1.22/bin/../lib/gcc/pic32mx/4.5.2/../../../../pic32mx/lib/libmchp_peripheral_32MX795F512L.a(eth_init_lib.o)
 .debug_ranges  0x00000070       0x10 /opt/microchip/xc32/v1.22/bin/../lib/gcc/pic32mx/4.5.2/../../../../pic32mx/lib/libmchp_peripheral_32MX795F512L.a(eth_mac_open_lib.o)
 .debug_ranges  0x00000080       0x20 /opt/microchip/xc32/v1.22/bin/../lib/gcc/pic32mx/4.5.2/../../../../pic32mx/lib/libmchp_peripheral_32MX795F512L.a(eth_mac_set_address_max_lib.o)
 .debug_ranges  0x000000a0       0x10 /opt/microchip/xc32/v1.22/bin/../lib/gcc/pic32mx/4.5.2/../../../../pic32mx/lib/libmchp_peripheral_32MX795F512L.a(eth_rx_buffers_append_lib.o)
 .debug_ranges  0x000000b0       0x38 /opt/microchip/xc32/v1.22/bin/../lib/gcc/pic32mx/4.5.2/../../../../pic32mx/lib/libmchp_peripheral_32MX795F512L.a(eth_rx_filters_lib.o)
 .debug_ranges  0x000000e8       0x18 /opt/microchip/xc32/v1.22/bin/../lib/gcc/pic32mx/4.5.2/../../../../pic32mx/lib/libmchp_peripheral_32MX795F512L.a(eth_rx_get_packet_lib.o)
 .debug_ranges  0x00000100       0x10 /opt/microchip/xc32/v1.22/bin/../lib/gcc/pic32mx/4.5.2/../../../../pic32mx/lib/libmchp_peripheral_32MX795F512L.a(eth_rx_set_buffer_size_lib.o)
 .debug_ranges  0x00000110       0x38 /opt/microchip/xc32/v1.22/bin/../lib/gcc/pic32mx/4.5.2/../../../../pic32mx/lib/libmchp_peripheral_32MX795F512L.a(eth_tx_packet_lib.o)
 .debug_ranges  0x00000148       0x10 /opt/microchip/xc32/v1.22/bin/../lib/gcc/pic32mx/4.5.2/../../../../pic32mx/lib/libmchp_peripheral_32MX795F512L.a(_eth_append_busy_list_lib.o)
 .debug_ranges  0x00000158       0x38 /opt/microchip/xc32/v1.22/bin/../lib/gcc/pic32mx/4.5.2/../../../../pic32mx/lib/libmchp_peripheral_32MX795F512L.a(eth_miim_access.o)
 .debug_ranges  0x00000190       0x50 /opt/microchip/xc32/v1.22/bin/../lib/gcc/pic32mx/4.5.2/../../../../pic32mx/lib/libmchp_peripheral_32MX795F512L.a(int_tbl_lib.o)
 .debug_ranges  0x000001e0       0x10 /opt/microchip/xc32/v1.22/bin/../lib/gcc/pic32mx/4.5.2/../../../../pic32mx/lib/libmchp_peripheral_32MX795F512L.a(port_set_pins_digital_in_lib.o)
 .debug_ranges  0x000001f0       0x10 /opt/microchip/xc32/v1.22/bin/../lib/gcc/pic32mx/4.5.2/../../../../pic32mx/lib/libmchp_peripheral_32MX795F512L.a(port_set_pins_digital_out_lib.o)

.gnu.attributes
                0x00000000       0x10
 *(.gnu.attributes)
 .gnu.attributes
                0x00000000       0x10 build/default/debug/contrib/ports/microchip/netif/ETHPIC32ExtPhyDP83848.o
 .gnu.attributes
                0x00000010       0x10 build/default/debug/contrib/ports/microchip/netif/xadapter.o
 .gnu.attributes
                0x00000020       0x10 build/default/debug/contrib/ports/microchip/netif/Microchip_eth.o
 .gnu.attributes
                0x00000030       0x10 build/default/debug/contrib/ports/microchip/netif/ETHPIC32ExtPhy.o
 .gnu.attributes
                0x00000040       0x10 build/default/debug/contrib/ports/microchip/sys_arch_raw.o
 .gnu.attributes
                0x00000050       0x10 build/default/debug/contrib/ports/microchip/sys_arch.o
 .gnu.attributes
                0x00000060       0x10 build/default/debug/contrib/ports/microchip/ethernetif.o
 .gnu.attributes
                0x00000070       0x10 build/default/debug/freertos/heap/heap_3.o
 .gnu.attributes
                0x00000080       0x10 build/default/debug/freertos/timers.o
 .gnu.attributes
                0x00000090       0x10 build/default/debug/freertos/port.o
 .gnu.attributes
                0x000000a0       0x10 build/default/debug/freertos/list.o
 .gnu.attributes
                0x000000b0       0x10 build/default/debug/freertos/tasks.o
 .gnu.attributes
                0x000000c0       0x10 build/default/debug/freertos/croutine.o
 .gnu.attributes
                0x000000d0       0x10 build/default/debug/freertos/queue.o
 .gnu.attributes
                0x000000e0       0x10 build/default/debug/lwip-1.4.1/src/api/api_msg.o
 .gnu.attributes
                0x000000f0       0x10 build/default/debug/lwip-1.4.1/src/api/netbuf.o
 .gnu.attributes
                0x00000100       0x10 build/default/debug/lwip-1.4.1/src/api/netdb.o
 .gnu.attributes
                0x00000110       0x10 build/default/debug/lwip-1.4.1/src/api/tcpip.o
 .gnu.attributes
                0x00000120       0x10 build/default/debug/lwip-1.4.1/src/api/sockets.o
 .gnu.attributes
                0x00000130       0x10 build/default/debug/lwip-1.4.1/src/api/netifapi.o
 .gnu.attributes
                0x00000140       0x10 build/default/debug/lwip-1.4.1/src/api/err.o
 .gnu.attributes
                0x00000150       0x10 build/default/debug/lwip-1.4.1/src/api/api_lib.o
 .gnu.attributes
                0x00000160       0x10 build/default/debug/lwip-1.4.1/src/core/ipv4/autoip.o
 .gnu.attributes
                0x00000170       0x10 build/default/debug/lwip-1.4.1/src/core/ipv4/ip_addr.o
 .gnu.attributes
                0x00000180       0x10 build/default/debug/lwip-1.4.1/src/core/ipv4/inet_chksum.o
 .gnu.attributes
                0x00000190       0x10 build/default/debug/lwip-1.4.1/src/core/ipv4/icmp.o
 .gnu.attributes
                0x000001a0       0x10 build/default/debug/lwip-1.4.1/src/core/ipv4/inet.o
 .gnu.attributes
                0x000001b0       0x10 build/default/debug/lwip-1.4.1/src/core/ipv4/ip_frag.o
 .gnu.attributes
                0x000001c0       0x10 build/default/debug/lwip-1.4.1/src/core/ipv4/ip.o
 .gnu.attributes
                0x000001d0       0x10 build/default/debug/lwip-1.4.1/src/core/ipv4/igmp.o
 .gnu.attributes
                0x000001e0       0x10 build/default/debug/lwip-1.4.1/src/core/snmp/asn1_enc.o
 .gnu.attributes
                0x000001f0       0x10 build/default/debug/lwip-1.4.1/src/core/snmp/msg_out.o
 .gnu.attributes
                0x00000200       0x10 build/default/debug/lwip-1.4.1/src/core/snmp/mib2.o
 .gnu.attributes
                0x00000210       0x10 build/default/debug/lwip-1.4.1/src/core/snmp/asn1_dec.o
 .gnu.attributes
                0x00000220       0x10 build/default/debug/lwip-1.4.1/src/core/snmp/msg_in.o
 .gnu.attributes
                0x00000230       0x10 build/default/debug/lwip-1.4.1/src/core/snmp/mib_structs.o
 .gnu.attributes
                0x00000240       0x10 build/default/debug/lwip-1.4.1/src/core/timers.o
 .gnu.attributes
                0x00000250       0x10 build/default/debug/lwip-1.4.1/src/core/memp.o
 .gnu.attributes
                0x00000260       0x10 build/default/debug/lwip-1.4.1/src/core/netif.o
 .gnu.attributes
                0x00000270       0x10 build/default/debug/lwip-1.4.1/src/core/pbuf.o
 .gnu.attributes
                0x00000280       0x10 build/default/debug/lwip-1.4.1/src/core/mem.o
 .gnu.attributes
                0x00000290       0x10 build/default/debug/lwip-1.4.1/src/core/dhcp.o
 .gnu.attributes
                0x000002a0       0x10 build/default/debug/lwip-1.4.1/src/core/tcp_out.o
 .gnu.attributes
                0x000002b0       0x10 build/default/debug/lwip-1.4.1/src/core/stats.o
 .gnu.attributes
                0x000002c0       0x10 build/default/debug/lwip-1.4.1/src/core/tcp_in.o
 .gnu.attributes
                0x000002d0       0x10 build/default/debug/lwip-1.4.1/src/core/def.o
 .gnu.attributes
                0x000002e0       0x10 build/default/debug/lwip-1.4.1/src/core/raw.o
 .gnu.attributes
                0x000002f0       0x10 build/default/debug/lwip-1.4.1/src/core/dns.o
 .gnu.attributes
                0x00000300       0x10 build/default/debug/lwip-1.4.1/src/core/udp.o
 .gnu.attributes
                0x00000310       0x10 build/default/debug/lwip-1.4.1/src/core/init.o
 .gnu.attributes
                0x00000320       0x10 build/default/debug/lwip-1.4.1/src/core/sys.o
 .gnu.attributes
                0x00000330       0x10 build/default/debug/lwip-1.4.1/src/core/tcp.o
 .gnu.attributes
                0x00000340       0x10 build/default/debug/lwip-1.4.1/src/netif/ppp/ppp_oe.o
 .gnu.attributes
                0x00000350       0x10 build/default/debug/lwip-1.4.1/src/netif/ppp/chap.o
 .gnu.attributes
                0x00000360       0x10 build/default/debug/lwip-1.4.1/src/netif/ppp/vj.o
 .gnu.attributes
                0x00000370       0x10 build/default/debug/lwip-1.4.1/src/netif/ppp/ipcp.o
 .gnu.attributes
                0x00000380       0x10 build/default/debug/lwip-1.4.1/src/netif/ppp/fsm.o
 .gnu.attributes
                0x00000390       0x10 build/default/debug/lwip-1.4.1/src/netif/ppp/md5.o
 .gnu.attributes
                0x000003a0       0x10 build/default/debug/lwip-1.4.1/src/netif/ppp/magic.o
 .gnu.attributes
                0x000003b0       0x10 build/default/debug/lwip-1.4.1/src/netif/ppp/auth.o
 .gnu.attributes
                0x000003c0       0x10 build/default/debug/lwip-1.4.1/src/netif/ppp/chpms.o
 .gnu.attributes
                0x000003d0       0x10 build/default/debug/lwip-1.4.1/src/netif/ppp/pap.o
 .gnu.attributes
                0x000003e0       0x10 build/default/debug/lwip-1.4.1/src/netif/ppp/randm.o
 .gnu.attributes
                0x000003f0       0x10 build/default/debug/lwip-1.4.1/src/netif/ppp/lcp.o
 .gnu.attributes
                0x00000400       0x10 build/default/debug/lwip-1.4.1/src/netif/ppp/ppp.o
 .gnu.attributes
                0x00000410       0x10 build/default/debug/lwip-1.4.1/src/netif/etharp.o
 .gnu.attributes
                0x00000420       0x10 build/default/debug/lwip-1.4.1/src/netif/ethernetif.o
 .gnu.attributes
                0x00000430       0x10 build/default/debug/lwip-1.4.1/src/netif/slipif.o
 .gnu.attributes
                0x00000440       0x10 build/default/debug/src/main.o
 .gnu.attributes
                0x00000450       0x10 build/default/debug/src/ip_lwip.o
 .gnu.attributes
                0x00000460       0x10 build/default/debug/src/echo.o
 .gnu.attributes
                0x00000470       0x10 /opt/microchip/xc32/v1.22/bin/../lib/gcc/pic32mx/4.5.2/../../../../pic32mx/lib/libmchp_peripheral.a(read_core_timer_lib.o)
 .gnu.attributes
                0x00000480       0x10 /opt/microchip/xc32/v1.22/bin/../lib/gcc/pic32mx/4.5.2/../../../../pic32mx/lib/libmchp_peripheral_32MX795F512L.a(eth_ack_packet_lib.o)
 .gnu.attributes
                0x00000490       0x10 /opt/microchip/xc32/v1.22/bin/../lib/gcc/pic32mx/4.5.2/../../../../pic32mx/lib/libmchp_peripheral_32MX795F512L.a(eth_descriptors_add_lib.o)
 .gnu.attributes
                0x000004a0       0x10 /opt/microchip/xc32/v1.22/bin/../lib/gcc/pic32mx/4.5.2/../../../../pic32mx/lib/libmchp_peripheral_32MX795F512L.a(eth_init_lib.o)
 .gnu.attributes
                0x000004b0       0x10 /opt/microchip/xc32/v1.22/bin/../lib/gcc/pic32mx/4.5.2/../../../../pic32mx/lib/libmchp_peripheral_32MX795F512L.a(eth_mac_open_lib.o)
 .gnu.attributes
                0x000004c0       0x10 /opt/microchip/xc32/v1.22/bin/../lib/gcc/pic32mx/4.5.2/../../../../pic32mx/lib/libmchp_peripheral_32MX795F512L.a(eth_mac_set_address_max_lib.o)
 .gnu.attributes
                0x000004d0       0x10 /opt/microchip/xc32/v1.22/bin/../lib/gcc/pic32mx/4.5.2/../../../../pic32mx/lib/libmchp_peripheral_32MX795F512L.a(eth_rx_buffers_append_lib.o)
 .gnu.attributes
                0x000004e0       0x10 /opt/microchip/xc32/v1.22/bin/../lib/gcc/pic32mx/4.5.2/../../../../pic32mx/lib/libmchp_peripheral_32MX795F512L.a(eth_rx_filters_lib.o)
 .gnu.attributes
                0x000004f0       0x10 /opt/microchip/xc32/v1.22/bin/../lib/gcc/pic32mx/4.5.2/../../../../pic32mx/lib/libmchp_peripheral_32MX795F512L.a(eth_rx_get_packet_lib.o)
 .gnu.attributes
                0x00000500       0x10 /opt/microchip/xc32/v1.22/bin/../lib/gcc/pic32mx/4.5.2/../../../../pic32mx/lib/libmchp_peripheral_32MX795F512L.a(eth_rx_set_buffer_size_lib.o)
 .gnu.attributes
                0x00000510       0x10 /opt/microchip/xc32/v1.22/bin/../lib/gcc/pic32mx/4.5.2/../../../../pic32mx/lib/libmchp_peripheral_32MX795F512L.a(eth_tx_packet_lib.o)
 .gnu.attributes
                0x00000520       0x10 /opt/microchip/xc32/v1.22/bin/../lib/gcc/pic32mx/4.5.2/../../../../pic32mx/lib/libmchp_peripheral_32MX795F512L.a(_eth_append_busy_list_lib.o)
 .gnu.attributes
                0x00000530       0x10 /opt/microchip/xc32/v1.22/bin/../lib/gcc/pic32mx/4.5.2/../../../../pic32mx/lib/libmchp_peripheral_32MX795F512L.a(eth_miim_access.o)
 .gnu.attributes
                0x00000540       0x10 /opt/microchip/xc32/v1.22/bin/../lib/gcc/pic32mx/4.5.2/../../../../pic32mx/lib/libmchp_peripheral_32MX795F512L.a(int_tbl_lib.o)
 .gnu.attributes
                0x00000550       0x10 /opt/microchip/xc32/v1.22/bin/../lib/gcc/pic32mx/4.5.2/../../../../pic32mx/lib/libmchp_peripheral_32MX795F512L.a(port_set_pins_digital_in_lib.o)
 .gnu.attributes
                0x00000560       0x10 /opt/microchip/xc32/v1.22/bin/../lib/gcc/pic32mx/4.5.2/../../../../pic32mx/lib/libmchp_peripheral_32MX795F512L.a(port_set_pins_digital_out_lib.o)
 .gnu.attributes
                0x00000570       0x10 /opt/microchip/xc32/v1.22/bin/../lib/gcc/pic32mx/4.5.2/../../../../pic32mx/lib/libmchp_peripheral_32MX795F512L.a(_ports_tbl_libp.o)
 .gnu.attributes
                0x00000580       0x10 /opt/microchip/xc32/v1.22/bin/../lib/gcc/pic32mx/4.5.2/../../../../pic32mx/lib/libpic32.a(default-bootstrap-exception-handler.o)
 .gnu.attributes
                0x00000590       0x10 /opt/microchip/xc32/v1.22/bin/../lib/gcc/pic32mx/4.5.2/../../../../pic32mx/lib/libpic32.a(default-on-reset.o)
 .gnu.attributes
                0x000005a0       0x10 /opt/microchip/xc32/v1.22/bin/../lib/gcc/pic32mx/4.5.2/../../../../pic32mx/lib/libpic32.a(default-on-bootstrap.o)
 .gnu.attributes
                0x000005b0       0x10 /opt/microchip/xc32/v1.22/bin/../lib/gcc/pic32mx/4.5.2/../../../../pic32mx/lib/libpic32.a(default-general-exception-handler.o)
 .gnu.attributes
                0x000005c0       0x10 /opt/microchip/xc32/v1.22/bin/../lib/gcc/pic32mx/4.5.2/../../../../pic32mx/lib/libpic32.a(defaultinterrupt.o)
 .gnu.attributes
                0x000005d0       0x10 /opt/microchip/xc32/v1.22/bin/../lib/gcc/pic32mx/4.5.2/../../../../pic32mx/lib/libdebug.a(db_utils.o)
 .gnu.attributes
                0x000005e0       0x10 /opt/microchip/xc32/v1.22/bin/../lib/gcc/pic32mx/4.5.2/../../../../pic32mx/lib/libpic32.a(xc32_uart.o)
 .gnu.attributes
                0x000005f0       0x10 /opt/microchip/xc32/v1.22/bin/../lib/gcc/pic32mx/4.5.2/../../../../pic32mx/lib/libc.a(_iob.o)
 .gnu.attributes
                0x00000600       0x10 /opt/microchip/xc32/v1.22/bin/../lib/gcc/pic32mx/4.5.2/../../../../pic32mx/lib/libc.a(calloc.o)
 .gnu.attributes
                0x00000610       0x10 /opt/microchip/xc32/v1.22/bin/../lib/gcc/pic32mx/4.5.2/../../../../pic32mx/lib/libc.a(malloc.o)
 .gnu.attributes
                0x00000620       0x10 /opt/microchip/xc32/v1.22/bin/../lib/gcc/pic32mx/4.5.2/../../../../pic32mx/lib/libc.a(puts.o)
 .gnu.attributes
                0x00000630       0x10 /opt/microchip/xc32/v1.22/bin/../lib/gcc/pic32mx/4.5.2/../../../../pic32mx/lib/libc.a(rand.o)
 .gnu.attributes
                0x00000640       0x10 /opt/microchip/xc32/v1.22/bin/../lib/gcc/pic32mx/4.5.2/../../../../pic32mx/lib/libc.a(setbuf.o)
 .gnu.attributes
                0x00000650       0x10 /opt/microchip/xc32/v1.22/bin/../lib/gcc/pic32mx/4.5.2/../../../../pic32mx/lib/libc.a(strncmp.o)
 .gnu.attributes
                0x00000660       0x10 /opt/microchip/xc32/v1.22/bin/../lib/gcc/pic32mx/4.5.2/../../../../pic32mx/lib/libc.a(printf_cdnopsuxX.eo)
 .gnu.attributes
                0x00000670       0x10 /opt/microchip/xc32/v1.22/bin/../lib/gcc/pic32mx/4.5.2/../../../../pic32mx/lib/libc.a(printf.o)
 .gnu.attributes
                0x00000680       0x10 /opt/microchip/xc32/v1.22/bin/../lib/gcc/pic32mx/4.5.2/../../../../pic32mx/lib/libc.a(_fputc_simple.o)
 .gnu.attributes
                0x00000690       0x10 /opt/microchip/xc32/v1.22/bin/../lib/gcc/pic32mx/4.5.2/../../../../pic32mx/lib/libc.a(buf.o)
 .gnu.attributes
                0x000006a0       0x10 /opt/microchip/xc32/v1.22/bin/../lib/gcc/pic32mx/4.5.2/../../../../pic32mx/lib/libc.a(errno.o)
 .gnu.attributes
                0x000006b0       0x10 /opt/microchip/xc32/v1.22/bin/../lib/gcc/pic32mx/4.5.2/../../../../pic32mx/lib/libc.a(doprnt_cdnopsuxX.eo)
 .gnu.attributes
                0x000006c0       0x10 /opt/microchip/xc32/v1.22/bin/../lib/gcc/pic32mx/4.5.2/../../../../pic32mx/lib/libc.a(doprnt.o)
 .gnu.attributes
                0x000006d0       0x10 /opt/microchip/xc32/v1.22/bin/../lib/gcc/pic32mx/4.5.2/../../../../pic32mx/lib/libc.a(_flsbuf_simple.o)
 .gnu.attributes
                0x000006e0       0x10 /opt/microchip/xc32/v1.22/bin/../lib/gcc/pic32mx/4.5.2/../../../../pic32mx/lib/libc.a(ctype.o)
 .gnu.attributes
                0x000006f0       0x10 /opt/microchip/xc32/v1.22/bin/../lib/gcc/pic32mx/4.5.2/../../../../pic32mx/lib/libc.a(powersf.o)
 .gnu.attributes
                0x00000700       0x10 /opt/microchip/xc32/v1.22/bin/../lib/gcc/pic32mx/4.5.2/../../../../pic32mx/lib/libpic32.a(sbrk.o)
 .gnu.attributes
                0x00000710       0x10 /opt/microchip/xc32/v1.22/bin/../lib/gcc/pic32mx/4.5.2/../../../../pic32mx/lib/libpic32.a(write.o)
 .gnu.attributes
                0x00000720       0x10 /opt/microchip/xc32/v1.22/bin/../lib/gcc/pic32mx/4.5.2/../../../../pic32mx/lib/libe.a(_floatdisf.o)
 .gnu.attributes
                0x00000730       0x10 /opt/microchip/xc32/v1.22/bin/../lib/gcc/pic32mx/4.5.2/libgcc.a(_floatundisf.o)
 .gnu.attributes
                0x00000740       0x10 /opt/microchip/xc32/v1.22/bin/../lib/gcc/pic32mx/4.5.2/libgcc.a(_udivdi3.o)
 .gnu.attributes
                0x00000750       0x10 /opt/microchip/xc32/v1.22/bin/../lib/gcc/pic32mx/4.5.2/libgcc.a(_umoddi3.o)
 .gnu.attributes
                0x00000760       0x10 /opt/microchip/xc32/v1.22/bin/../lib/gcc/pic32mx/4.5.2/libgcc.a(floatunsisf.o)
LOAD /opt/microchip/xc32/v1.22/bin/../lib/gcc/pic32mx/4.5.2/libgcc.a
START GROUP
LOAD /opt/microchip/xc32/v1.22/bin/../lib/gcc/pic32mx/4.5.2/../../../../pic32mx/lib/libpic32.a
LOAD /opt/microchip/xc32/v1.22/bin/../lib/gcc/pic32mx/4.5.2/../../../../pic32mx/lib/libdebug.a
LOAD /opt/microchip/xc32/v1.22/bin/../lib/gcc/pic32mx/4.5.2/../../../../pic32mx/lib/libm.a
LOAD /opt/microchip/xc32/v1.22/bin/../lib/gcc/pic32mx/4.5.2/../../../../pic32mx/lib/libe.a
LOAD /opt/microchip/xc32/v1.22/bin/../lib/gcc/pic32mx/4.5.2/../../../../pic32mx/lib/libdsp.a
LOAD /opt/microchip/xc32/v1.22/bin/../lib/gcc/pic32mx/4.5.2/libgcc.a
LOAD /opt/microchip/xc32/v1.22/bin/../lib/gcc/pic32mx/4.5.2/../../../../pic32mx/lib/libpic32.a
LOAD /opt/microchip/xc32/v1.22/bin/../lib/gcc/pic32mx/4.5.2/../../../../pic32mx/lib/libc.a
LOAD /opt/microchip/xc32/v1.22/bin/../lib/gcc/pic32mx/4.5.2/../../../../pic32mx/lib/libpic32.a
END GROUP
LOAD /opt/microchip/xc32/v1.22/bin/../lib/gcc/pic32mx/4.5.2/libgcc.a
OUTPUT(dist/default/debug/port_lwip_pic32.X.debug.elf elf32-tradlittlemips)
LOAD stack
LOAD data_init

.reginfo        0x00000000       0x18
 .reginfo       0x00000000       0x18 /opt/microchip/xc32/v1.22/bin/../lib/gcc/pic32mx/4.5.2/../../../../pic32mx/lib/crt0.o

.stack          0xa0013518      0x400
 .stack         0xa0013518      0x400 stack

.bss            0xa0002514     0x71e0
 .bss           0xa0002514     0x6c30 build/default/debug/lwip-1.4.1/src/core/memp.o
 .bss           0xa0009144      0x3e8 build/default/debug/freertos/port.o
                0xa0009144                xISRStack
 .bss           0xa000952c      0x100 /opt/microchip/xc32/v1.22/bin/../lib/gcc/pic32mx/4.5.2/../../../../pic32mx/lib/libdebug.a(db_utils.o)
 .bss           0xa000962c       0xc8 build/default/debug/lwip-1.4.1/src/netif/etharp.o

.data           0xa00096f4       0xa0
 .data          0xa00096f4       0xa0 /opt/microchip/xc32/v1.22/bin/../lib/gcc/pic32mx/4.5.2/../../../../pic32mx/lib/libc.a(_iob.o)
                0xa00096f4                _iob

.bss            0xa0009794      0x128
 .bss           0xa0009794       0x60 build/default/debug/lwip-1.4.1/src/api/sockets.o
 .bss           0xa00097f4       0x40 /opt/microchip/xc32/v1.22/bin/../lib/gcc/pic32mx/4.5.2/../../../../pic32mx/lib/libc.a(_iob.o)
                0xa00097f4                _sibuf
                0xa0009814                _sobuf
 .bss           0xa0009834       0x28 build/default/debug/freertos/timers.o
 .bss           0xa000985c       0x1c /opt/microchip/xc32/v1.22/bin/../lib/gcc/pic32mx/4.5.2/../../../../pic32mx/lib/libpic32.a(sbrk.o)
 .bss           0xa0009878       0x10 build/default/debug/lwip-1.4.1/src/core/ipv4/ip_addr.o
 .bss           0xa0009888       0x10 build/default/debug/lwip-1.4.1/src/core/tcp_in.o
 .bss           0xa0009898       0x10 /opt/microchip/xc32/v1.22/bin/../lib/gcc/pic32mx/4.5.2/../../../../pic32mx/lib/libc.a(malloc.o)
                0xa0009898                __allocs
 .bss           0xa00098a8       0x10 /opt/microchip/xc32/v1.22/bin/../lib/gcc/pic32mx/4.5.2/../../../../pic32mx/lib/libc.a(rand.o)
 .bss           0xa00098b8        0x4 /opt/microchip/xc32/v1.22/bin/../lib/gcc/pic32mx/4.5.2/../../../../pic32mx/lib/libc.a(buf.o)

.bss%z1         0x00000000        0x0
 .bss           0x00000000        0x0 /opt/microchip/xc32/v1.22/bin/../lib/gcc/pic32mx/4.5.2/libgcc.a(floatunsisf.o)

.data%z2        0x00000000        0x0
 .data          0x00000000        0x0 /opt/microchip/xc32/v1.22/bin/../lib/gcc/pic32mx/4.5.2/libgcc.a(floatunsisf.o)

.bss%z3         0x00000000        0x0
 .bss           0x00000000        0x0 /opt/microchip/xc32/v1.22/bin/../lib/gcc/pic32mx/4.5.2/libgcc.a(_umoddi3.o)

.data%z4        0x00000000        0x0
 .data          0x00000000        0x0 /opt/microchip/xc32/v1.22/bin/../lib/gcc/pic32mx/4.5.2/libgcc.a(_umoddi3.o)

.bss%z5         0x00000000        0x0
 .bss           0x00000000        0x0 /opt/microchip/xc32/v1.22/bin/../lib/gcc/pic32mx/4.5.2/libgcc.a(_udivdi3.o)

.data%z6        0x00000000        0x0
 .data          0x00000000        0x0 /opt/microchip/xc32/v1.22/bin/../lib/gcc/pic32mx/4.5.2/libgcc.a(_udivdi3.o)

.bss%z7         0x00000000        0x0
 .bss           0x00000000        0x0 /opt/microchip/xc32/v1.22/bin/../lib/gcc/pic32mx/4.5.2/libgcc.a(_floatundisf.o)

.data%z8        0x00000000        0x0
 .data          0x00000000        0x0 /opt/microchip/xc32/v1.22/bin/../lib/gcc/pic32mx/4.5.2/libgcc.a(_floatundisf.o)

.bss%z9         0x00000000        0x0
 .bss           0x00000000        0x0 /opt/microchip/xc32/v1.22/bin/../lib/gcc/pic32mx/4.5.2/../../../../pic32mx/lib/libe.a(_floatdisf.o)

.data%z10       0x00000000        0x0
 .data          0x00000000        0x0 /opt/microchip/xc32/v1.22/bin/../lib/gcc/pic32mx/4.5.2/../../../../pic32mx/lib/libe.a(_floatdisf.o)

.bss%z11        0x00000000        0x0
 .bss           0x00000000        0x0 /opt/microchip/xc32/v1.22/bin/../lib/gcc/pic32mx/4.5.2/../../../../pic32mx/lib/libm.a(fp32.o)

.data%z12       0x00000000        0x0
 .data          0x00000000        0x0 /opt/microchip/xc32/v1.22/bin/../lib/gcc/pic32mx/4.5.2/../../../../pic32mx/lib/libm.a(fp32.o)

.bss%z13        0x00000000        0x0
 .bss           0x00000000        0x0 /opt/microchip/xc32/v1.22/bin/../lib/gcc/pic32mx/4.5.2/../../../../pic32mx/lib/libm.a(fpmod32.o)

.data%z14       0x00000000        0x0
 .data          0x00000000        0x0 /opt/microchip/xc32/v1.22/bin/../lib/gcc/pic32mx/4.5.2/../../../../pic32mx/lib/libm.a(fpmod32.o)

.bss%z15        0x00000000        0x0
 .bss           0x00000000        0x0 /opt/microchip/xc32/v1.22/bin/../lib/gcc/pic32mx/4.5.2/../../../../pic32mx/lib/libpic32.a(write.o)

.data%z16       0x00000000        0x0
 .data          0x00000000        0x0 /opt/microchip/xc32/v1.22/bin/../lib/gcc/pic32mx/4.5.2/../../../../pic32mx/lib/libpic32.a(write.o)

.data%z17       0x00000000        0x0
 .data          0x00000000        0x0 /opt/microchip/xc32/v1.22/bin/../lib/gcc/pic32mx/4.5.2/../../../../pic32mx/lib/libpic32.a(sbrk.o)

.bss%z18        0x00000000        0x0
 .bss           0x00000000        0x0 /opt/microchip/xc32/v1.22/bin/../lib/gcc/pic32mx/4.5.2/../../../../pic32mx/lib/libc.a(powersf.o)

.data%z19       0x00000000        0x0
 .data          0x00000000        0x0 /opt/microchip/xc32/v1.22/bin/../lib/gcc/pic32mx/4.5.2/../../../../pic32mx/lib/libc.a(powersf.o)

.bss%z20        0x00000000        0x0
 .bss           0x00000000        0x0 /opt/microchip/xc32/v1.22/bin/../lib/gcc/pic32mx/4.5.2/../../../../pic32mx/lib/libc.a(ctype.o)

.data%z21       0x00000000        0x0
 .data          0x00000000        0x0 /opt/microchip/xc32/v1.22/bin/../lib/gcc/pic32mx/4.5.2/../../../../pic32mx/lib/libc.a(ctype.o)

.bss%z22        0x00000000        0x0
 .bss           0x00000000        0x0 /opt/microchip/xc32/v1.22/bin/../lib/gcc/pic32mx/4.5.2/../../../../pic32mx/lib/libc.a(_flsbuf_simple.o)

.data%z23       0x00000000        0x0
 .data          0x00000000        0x0 /opt/microchip/xc32/v1.22/bin/../lib/gcc/pic32mx/4.5.2/../../../../pic32mx/lib/libc.a(_flsbuf_simple.o)

.bss%z24        0x00000000        0x0
 .bss           0x00000000        0x0 /opt/microchip/xc32/v1.22/bin/../lib/gcc/pic32mx/4.5.2/../../../../pic32mx/lib/libc.a(doprnt.o)

.data%z25       0x00000000        0x0
 .data          0x00000000        0x0 /opt/microchip/xc32/v1.22/bin/../lib/gcc/pic32mx/4.5.2/../../../../pic32mx/lib/libc.a(doprnt.o)

.bss%z26        0x00000000        0x0
 .bss           0x00000000        0x0 /opt/microchip/xc32/v1.22/bin/../lib/gcc/pic32mx/4.5.2/../../../../pic32mx/lib/libc.a(doprnt_cdnopsuxX.eo)

.data%z27       0x00000000        0x0
 .data          0x00000000        0x0 /opt/microchip/xc32/v1.22/bin/../lib/gcc/pic32mx/4.5.2/../../../../pic32mx/lib/libc.a(doprnt_cdnopsuxX.eo)

.bss%z28        0x00000000        0x0
 .bss           0x00000000        0x0 /opt/microchip/xc32/v1.22/bin/../lib/gcc/pic32mx/4.5.2/../../../../pic32mx/lib/libc.a(errno.o)

.data%z29       0x00000000        0x0
 .data          0x00000000        0x0 /opt/microchip/xc32/v1.22/bin/../lib/gcc/pic32mx/4.5.2/../../../../pic32mx/lib/libc.a(errno.o)

.data%z30       0x00000000        0x0
 .data          0x00000000        0x0 /opt/microchip/xc32/v1.22/bin/../lib/gcc/pic32mx/4.5.2/../../../../pic32mx/lib/libc.a(buf.o)

.bss%z31        0x00000000        0x0
 .bss           0x00000000        0x0 /opt/microchip/xc32/v1.22/bin/../lib/gcc/pic32mx/4.5.2/../../../../pic32mx/lib/libc.a(_fputc_simple.o)

.data%z32       0x00000000        0x0
 .data          0x00000000        0x0 /opt/microchip/xc32/v1.22/bin/../lib/gcc/pic32mx/4.5.2/../../../../pic32mx/lib/libc.a(_fputc_simple.o)

.bss%z33        0x00000000        0x0
 .bss           0x00000000        0x0 /opt/microchip/xc32/v1.22/bin/../lib/gcc/pic32mx/4.5.2/../../../../pic32mx/lib/libc.a(printf.o)

.data%z34       0x00000000        0x0
 .data          0x00000000        0x0 /opt/microchip/xc32/v1.22/bin/../lib/gcc/pic32mx/4.5.2/../../../../pic32mx/lib/libc.a(printf.o)

.bss%z35        0x00000000        0x0
 .bss           0x00000000        0x0 /opt/microchip/xc32/v1.22/bin/../lib/gcc/pic32mx/4.5.2/../../../../pic32mx/lib/libc.a(printf_cdnopsuxX.eo)

.data%z36       0x00000000        0x0
 .data          0x00000000        0x0 /opt/microchip/xc32/v1.22/bin/../lib/gcc/pic32mx/4.5.2/../../../../pic32mx/lib/libc.a(printf_cdnopsuxX.eo)

.bss%z37        0x00000000        0x0
 .bss           0x00000000        0x0 /opt/microchip/xc32/v1.22/bin/../lib/gcc/pic32mx/4.5.2/../../../../pic32mx/lib/libc.a(strncmp.o)

.data%z38       0x00000000        0x0
 .data          0x00000000        0x0 /opt/microchip/xc32/v1.22/bin/../lib/gcc/pic32mx/4.5.2/../../../../pic32mx/lib/libc.a(strncmp.o)

.bss%z39        0x00000000        0x0
 .bss           0x00000000        0x0 /opt/microchip/xc32/v1.22/bin/../lib/gcc/pic32mx/4.5.2/../../../../pic32mx/lib/libc.a(setbuf.o)

.data%z40       0x00000000        0x0
 .data          0x00000000        0x0 /opt/microchip/xc32/v1.22/bin/../lib/gcc/pic32mx/4.5.2/../../../../pic32mx/lib/libc.a(setbuf.o)

.data%z41       0x00000000        0x0
 .data          0x00000000        0x0 /opt/microchip/xc32/v1.22/bin/../lib/gcc/pic32mx/4.5.2/../../../../pic32mx/lib/libc.a(rand.o)

.bss%z42        0x00000000        0x0
 .bss           0x00000000        0x0 /opt/microchip/xc32/v1.22/bin/../lib/gcc/pic32mx/4.5.2/../../../../pic32mx/lib/libc.a(puts.o)

.data%z43       0x00000000        0x0
 .data          0x00000000        0x0 /opt/microchip/xc32/v1.22/bin/../lib/gcc/pic32mx/4.5.2/../../../../pic32mx/lib/libc.a(puts.o)

.data%z44       0x00000000        0x0
 .data          0x00000000        0x0 /opt/microchip/xc32/v1.22/bin/../lib/gcc/pic32mx/4.5.2/../../../../pic32mx/lib/libc.a(malloc.o)

.bss%z45        0x00000000        0x0
 .bss           0x00000000        0x0 /opt/microchip/xc32/v1.22/bin/../lib/gcc/pic32mx/4.5.2/../../../../pic32mx/lib/libc.a(calloc.o)

.data%z46       0x00000000        0x0
 .data          0x00000000        0x0 /opt/microchip/xc32/v1.22/bin/../lib/gcc/pic32mx/4.5.2/../../../../pic32mx/lib/libc.a(calloc.o)

.bss%z47        0x00000000        0x0
 .bss           0x00000000        0x0 /opt/microchip/xc32/v1.22/bin/../lib/gcc/pic32mx/4.5.2/../../../../pic32mx/lib/libpic32.a(xc32_uart.o)

.data%z48       0x00000000        0x0
 .data          0x00000000        0x0 /opt/microchip/xc32/v1.22/bin/../lib/gcc/pic32mx/4.5.2/../../../../pic32mx/lib/libpic32.a(xc32_uart.o)

.data%z49       0x00000000        0x0
 .data          0x00000000        0x0 /opt/microchip/xc32/v1.22/bin/../lib/gcc/pic32mx/4.5.2/../../../../pic32mx/lib/libdebug.a(db_utils.o)

.bss%z50        0x00000000        0x0
 .bss           0x00000000        0x0 /opt/microchip/xc32/v1.22/bin/../lib/gcc/pic32mx/4.5.2/../../../../pic32mx/lib/libpic32.a(defaultinterrupt.o)

.data%z51       0x00000000        0x0
 .data          0x00000000        0x0 /opt/microchip/xc32/v1.22/bin/../lib/gcc/pic32mx/4.5.2/../../../../pic32mx/lib/libpic32.a(defaultinterrupt.o)

.bss%z52        0x00000000        0x0
 .bss           0x00000000        0x0 /opt/microchip/xc32/v1.22/bin/../lib/gcc/pic32mx/4.5.2/../../../../pic32mx/lib/libpic32.a(default-general-exception-handler.o)

.data%z53       0x00000000        0x0
 .data          0x00000000        0x0 /opt/microchip/xc32/v1.22/bin/../lib/gcc/pic32mx/4.5.2/../../../../pic32mx/lib/libpic32.a(default-general-exception-handler.o)

.bss%z54        0x00000000        0x0
 .bss           0x00000000        0x0 /opt/microchip/xc32/v1.22/bin/../lib/gcc/pic32mx/4.5.2/../../../../pic32mx/lib/libpic32.a(vector63.o)

.data%z55       0x00000000        0x0
 .data          0x00000000        0x0 /opt/microchip/xc32/v1.22/bin/../lib/gcc/pic32mx/4.5.2/../../../../pic32mx/lib/libpic32.a(vector63.o)

.bss%z56        0x00000000        0x0
 .bss           0x00000000        0x0 /opt/microchip/xc32/v1.22/bin/../lib/gcc/pic32mx/4.5.2/../../../../pic32mx/lib/libpic32.a(vector62.o)

.data%z57       0x00000000        0x0
 .data          0x00000000        0x0 /opt/microchip/xc32/v1.22/bin/../lib/gcc/pic32mx/4.5.2/../../../../pic32mx/lib/libpic32.a(vector62.o)

.bss%z58        0x00000000        0x0
 .bss           0x00000000        0x0 /opt/microchip/xc32/v1.22/bin/../lib/gcc/pic32mx/4.5.2/../../../../pic32mx/lib/libpic32.a(vector61.o)

.data%z59       0x00000000        0x0
 .data          0x00000000        0x0 /opt/microchip/xc32/v1.22/bin/../lib/gcc/pic32mx/4.5.2/../../../../pic32mx/lib/libpic32.a(vector61.o)

.bss%z60        0x00000000        0x0
 .bss           0x00000000        0x0 /opt/microchip/xc32/v1.22/bin/../lib/gcc/pic32mx/4.5.2/../../../../pic32mx/lib/libpic32.a(vector60.o)

.data%z61       0x00000000        0x0
 .data          0x00000000        0x0 /opt/microchip/xc32/v1.22/bin/../lib/gcc/pic32mx/4.5.2/../../../../pic32mx/lib/libpic32.a(vector60.o)

.bss%z62        0x00000000        0x0
 .bss           0x00000000        0x0 /opt/microchip/xc32/v1.22/bin/../lib/gcc/pic32mx/4.5.2/../../../../pic32mx/lib/libpic32.a(vector59.o)

.data%z63       0x00000000        0x0
 .data          0x00000000        0x0 /opt/microchip/xc32/v1.22/bin/../lib/gcc/pic32mx/4.5.2/../../../../pic32mx/lib/libpic32.a(vector59.o)

.bss%z64        0x00000000        0x0
 .bss           0x00000000        0x0 /opt/microchip/xc32/v1.22/bin/../lib/gcc/pic32mx/4.5.2/../../../../pic32mx/lib/libpic32.a(vector58.o)

.data%z65       0x00000000        0x0
 .data          0x00000000        0x0 /opt/microchip/xc32/v1.22/bin/../lib/gcc/pic32mx/4.5.2/../../../../pic32mx/lib/libpic32.a(vector58.o)

.bss%z66        0x00000000        0x0
 .bss           0x00000000        0x0 /opt/microchip/xc32/v1.22/bin/../lib/gcc/pic32mx/4.5.2/../../../../pic32mx/lib/libpic32.a(vector57.o)

.data%z67       0x00000000        0x0
 .data          0x00000000        0x0 /opt/microchip/xc32/v1.22/bin/../lib/gcc/pic32mx/4.5.2/../../../../pic32mx/lib/libpic32.a(vector57.o)

.bss%z68        0x00000000        0x0
 .bss           0x00000000        0x0 /opt/microchip/xc32/v1.22/bin/../lib/gcc/pic32mx/4.5.2/../../../../pic32mx/lib/libpic32.a(vector56.o)

.data%z69       0x00000000        0x0
 .data          0x00000000        0x0 /opt/microchip/xc32/v1.22/bin/../lib/gcc/pic32mx/4.5.2/../../../../pic32mx/lib/libpic32.a(vector56.o)

.bss%z70        0x00000000        0x0
 .bss           0x00000000        0x0 /opt/microchip/xc32/v1.22/bin/../lib/gcc/pic32mx/4.5.2/../../../../pic32mx/lib/libpic32.a(vector55.o)

.data%z71       0x00000000        0x0
 .data          0x00000000        0x0 /opt/microchip/xc32/v1.22/bin/../lib/gcc/pic32mx/4.5.2/../../../../pic32mx/lib/libpic32.a(vector55.o)

.bss%z72        0x00000000        0x0
 .bss           0x00000000        0x0 /opt/microchip/xc32/v1.22/bin/../lib/gcc/pic32mx/4.5.2/../../../../pic32mx/lib/libpic32.a(vector54.o)

.data%z73       0x00000000        0x0
 .data          0x00000000        0x0 /opt/microchip/xc32/v1.22/bin/../lib/gcc/pic32mx/4.5.2/../../../../pic32mx/lib/libpic32.a(vector54.o)

.bss%z74        0x00000000        0x0
 .bss           0x00000000        0x0 /opt/microchip/xc32/v1.22/bin/../lib/gcc/pic32mx/4.5.2/../../../../pic32mx/lib/libpic32.a(vector53.o)

.data%z75       0x00000000        0x0
 .data          0x00000000        0x0 /opt/microchip/xc32/v1.22/bin/../lib/gcc/pic32mx/4.5.2/../../../../pic32mx/lib/libpic32.a(vector53.o)

.bss%z76        0x00000000        0x0
 .bss           0x00000000        0x0 /opt/microchip/xc32/v1.22/bin/../lib/gcc/pic32mx/4.5.2/../../../../pic32mx/lib/libpic32.a(vector52.o)

.data%z77       0x00000000        0x0
 .data          0x00000000        0x0 /opt/microchip/xc32/v1.22/bin/../lib/gcc/pic32mx/4.5.2/../../../../pic32mx/lib/libpic32.a(vector52.o)

.bss%z78        0x00000000        0x0
 .bss           0x00000000        0x0 /opt/microchip/xc32/v1.22/bin/../lib/gcc/pic32mx/4.5.2/../../../../pic32mx/lib/libpic32.a(vector51.o)

.data%z79       0x00000000        0x0
 .data          0x00000000        0x0 /opt/microchip/xc32/v1.22/bin/../lib/gcc/pic32mx/4.5.2/../../../../pic32mx/lib/libpic32.a(vector51.o)

.bss%z80        0x00000000        0x0
 .bss           0x00000000        0x0 /opt/microchip/xc32/v1.22/bin/../lib/gcc/pic32mx/4.5.2/../../../../pic32mx/lib/libpic32.a(vector50.o)

.data%z81       0x00000000        0x0
 .data          0x00000000        0x0 /opt/microchip/xc32/v1.22/bin/../lib/gcc/pic32mx/4.5.2/../../../../pic32mx/lib/libpic32.a(vector50.o)

.bss%z82        0x00000000        0x0
 .bss           0x00000000        0x0 /opt/microchip/xc32/v1.22/bin/../lib/gcc/pic32mx/4.5.2/../../../../pic32mx/lib/libpic32.a(vector49.o)

.data%z83       0x00000000        0x0
 .data          0x00000000        0x0 /opt/microchip/xc32/v1.22/bin/../lib/gcc/pic32mx/4.5.2/../../../../pic32mx/lib/libpic32.a(vector49.o)

.bss%z84        0x00000000        0x0
 .bss           0x00000000        0x0 /opt/microchip/xc32/v1.22/bin/../lib/gcc/pic32mx/4.5.2/../../../../pic32mx/lib/libpic32.a(vector47.o)

.data%z85       0x00000000        0x0
 .data          0x00000000        0x0 /opt/microchip/xc32/v1.22/bin/../lib/gcc/pic32mx/4.5.2/../../../../pic32mx/lib/libpic32.a(vector47.o)

.bss%z86        0x00000000        0x0
 .bss           0x00000000        0x0 /opt/microchip/xc32/v1.22/bin/../lib/gcc/pic32mx/4.5.2/../../../../pic32mx/lib/libpic32.a(vector46.o)

.data%z87       0x00000000        0x0
 .data          0x00000000        0x0 /opt/microchip/xc32/v1.22/bin/../lib/gcc/pic32mx/4.5.2/../../../../pic32mx/lib/libpic32.a(vector46.o)

.bss%z88        0x00000000        0x0
 .bss           0x00000000        0x0 /opt/microchip/xc32/v1.22/bin/../lib/gcc/pic32mx/4.5.2/../../../../pic32mx/lib/libpic32.a(vector45.o)

.data%z89       0x00000000        0x0
 .data          0x00000000        0x0 /opt/microchip/xc32/v1.22/bin/../lib/gcc/pic32mx/4.5.2/../../../../pic32mx/lib/libpic32.a(vector45.o)

.bss%z90        0x00000000        0x0
 .bss           0x00000000        0x0 /opt/microchip/xc32/v1.22/bin/../lib/gcc/pic32mx/4.5.2/../../../../pic32mx/lib/libpic32.a(vector44.o)

.data%z91       0x00000000        0x0
 .data          0x00000000        0x0 /opt/microchip/xc32/v1.22/bin/../lib/gcc/pic32mx/4.5.2/../../../../pic32mx/lib/libpic32.a(vector44.o)

.bss%z92        0x00000000        0x0
 .bss           0x00000000        0x0 /opt/microchip/xc32/v1.22/bin/../lib/gcc/pic32mx/4.5.2/../../../../pic32mx/lib/libpic32.a(vector43.o)

.data%z93       0x00000000        0x0
 .data          0x00000000        0x0 /opt/microchip/xc32/v1.22/bin/../lib/gcc/pic32mx/4.5.2/../../../../pic32mx/lib/libpic32.a(vector43.o)

.bss%z94        0x00000000        0x0
 .bss           0x00000000        0x0 /opt/microchip/xc32/v1.22/bin/../lib/gcc/pic32mx/4.5.2/../../../../pic32mx/lib/libpic32.a(vector42.o)

.data%z95       0x00000000        0x0
 .data          0x00000000        0x0 /opt/microchip/xc32/v1.22/bin/../lib/gcc/pic32mx/4.5.2/../../../../pic32mx/lib/libpic32.a(vector42.o)

.bss%z96        0x00000000        0x0
 .bss           0x00000000        0x0 /opt/microchip/xc32/v1.22/bin/../lib/gcc/pic32mx/4.5.2/../../../../pic32mx/lib/libpic32.a(vector41.o)

.data%z97       0x00000000        0x0
 .data          0x00000000        0x0 /opt/microchip/xc32/v1.22/bin/../lib/gcc/pic32mx/4.5.2/../../../../pic32mx/lib/libpic32.a(vector41.o)

.bss%z98        0x00000000        0x0
 .bss           0x00000000        0x0 /opt/microchip/xc32/v1.22/bin/../lib/gcc/pic32mx/4.5.2/../../../../pic32mx/lib/libpic32.a(vector40.o)

.data%z99       0x00000000        0x0
 .data          0x00000000        0x0 /opt/microchip/xc32/v1.22/bin/../lib/gcc/pic32mx/4.5.2/../../../../pic32mx/lib/libpic32.a(vector40.o)

.bss%z100       0x00000000        0x0
 .bss           0x00000000        0x0 /opt/microchip/xc32/v1.22/bin/../lib/gcc/pic32mx/4.5.2/../../../../pic32mx/lib/libpic32.a(vector39.o)

.data%z101      0x00000000        0x0
 .data          0x00000000        0x0 /opt/microchip/xc32/v1.22/bin/../lib/gcc/pic32mx/4.5.2/../../../../pic32mx/lib/libpic32.a(vector39.o)

.bss%z102       0x00000000        0x0
 .bss           0x00000000        0x0 /opt/microchip/xc32/v1.22/bin/../lib/gcc/pic32mx/4.5.2/../../../../pic32mx/lib/libpic32.a(vector38.o)

.data%z103      0x00000000        0x0
 .data          0x00000000        0x0 /opt/microchip/xc32/v1.22/bin/../lib/gcc/pic32mx/4.5.2/../../../../pic32mx/lib/libpic32.a(vector38.o)

.bss%z104       0x00000000        0x0
 .bss           0x00000000        0x0 /opt/microchip/xc32/v1.22/bin/../lib/gcc/pic32mx/4.5.2/../../../../pic32mx/lib/libpic32.a(vector37.o)

.data%z105      0x00000000        0x0
 .data          0x00000000        0x0 /opt/microchip/xc32/v1.22/bin/../lib/gcc/pic32mx/4.5.2/../../../../pic32mx/lib/libpic32.a(vector37.o)

.bss%z106       0x00000000        0x0
 .bss           0x00000000        0x0 /opt/microchip/xc32/v1.22/bin/../lib/gcc/pic32mx/4.5.2/../../../../pic32mx/lib/libpic32.a(vector36.o)

.data%z107      0x00000000        0x0
 .data          0x00000000        0x0 /opt/microchip/xc32/v1.22/bin/../lib/gcc/pic32mx/4.5.2/../../../../pic32mx/lib/libpic32.a(vector36.o)

.bss%z108       0x00000000        0x0
 .bss           0x00000000        0x0 /opt/microchip/xc32/v1.22/bin/../lib/gcc/pic32mx/4.5.2/../../../../pic32mx/lib/libpic32.a(vector35.o)

.data%z109      0x00000000        0x0
 .data          0x00000000        0x0 /opt/microchip/xc32/v1.22/bin/../lib/gcc/pic32mx/4.5.2/../../../../pic32mx/lib/libpic32.a(vector35.o)

.bss%z110       0x00000000        0x0
 .bss           0x00000000        0x0 /opt/microchip/xc32/v1.22/bin/../lib/gcc/pic32mx/4.5.2/../../../../pic32mx/lib/libpic32.a(vector34.o)

.data%z111      0x00000000        0x0
 .data          0x00000000        0x0 /opt/microchip/xc32/v1.22/bin/../lib/gcc/pic32mx/4.5.2/../../../../pic32mx/lib/libpic32.a(vector34.o)

.bss%z112       0x00000000        0x0
 .bss           0x00000000        0x0 /opt/microchip/xc32/v1.22/bin/../lib/gcc/pic32mx/4.5.2/../../../../pic32mx/lib/libpic32.a(vector33.o)

.data%z113      0x00000000        0x0
 .data          0x00000000        0x0 /opt/microchip/xc32/v1.22/bin/../lib/gcc/pic32mx/4.5.2/../../../../pic32mx/lib/libpic32.a(vector33.o)

.bss%z114       0x00000000        0x0
 .bss           0x00000000        0x0 /opt/microchip/xc32/v1.22/bin/../lib/gcc/pic32mx/4.5.2/../../../../pic32mx/lib/libpic32.a(vector32.o)

.data%z115      0x00000000        0x0
 .data          0x00000000        0x0 /opt/microchip/xc32/v1.22/bin/../lib/gcc/pic32mx/4.5.2/../../../../pic32mx/lib/libpic32.a(vector32.o)

.bss%z116       0x00000000        0x0
 .bss           0x00000000        0x0 /opt/microchip/xc32/v1.22/bin/../lib/gcc/pic32mx/4.5.2/../../../../pic32mx/lib/libpic32.a(vector31.o)

.data%z117      0x00000000        0x0
 .data          0x00000000        0x0 /opt/microchip/xc32/v1.22/bin/../lib/gcc/pic32mx/4.5.2/../../../../pic32mx/lib/libpic32.a(vector31.o)

.bss%z118       0x00000000        0x0
 .bss           0x00000000        0x0 /opt/microchip/xc32/v1.22/bin/../lib/gcc/pic32mx/4.5.2/../../../../pic32mx/lib/libpic32.a(vector30.o)

.data%z119      0x00000000        0x0
 .data          0x00000000        0x0 /opt/microchip/xc32/v1.22/bin/../lib/gcc/pic32mx/4.5.2/../../../../pic32mx/lib/libpic32.a(vector30.o)

.bss%z120       0x00000000        0x0
 .bss           0x00000000        0x0 /opt/microchip/xc32/v1.22/bin/../lib/gcc/pic32mx/4.5.2/../../../../pic32mx/lib/libpic32.a(vector29.o)

.data%z121      0x00000000        0x0
 .data          0x00000000        0x0 /opt/microchip/xc32/v1.22/bin/../lib/gcc/pic32mx/4.5.2/../../../../pic32mx/lib/libpic32.a(vector29.o)

.bss%z122       0x00000000        0x0
 .bss           0x00000000        0x0 /opt/microchip/xc32/v1.22/bin/../lib/gcc/pic32mx/4.5.2/../../../../pic32mx/lib/libpic32.a(vector28.o)

.data%z123      0x00000000        0x0
 .data          0x00000000        0x0 /opt/microchip/xc32/v1.22/bin/../lib/gcc/pic32mx/4.5.2/../../../../pic32mx/lib/libpic32.a(vector28.o)

.bss%z124       0x00000000        0x0
 .bss           0x00000000        0x0 /opt/microchip/xc32/v1.22/bin/../lib/gcc/pic32mx/4.5.2/../../../../pic32mx/lib/libpic32.a(vector27.o)

.data%z125      0x00000000        0x0
 .data          0x00000000        0x0 /opt/microchip/xc32/v1.22/bin/../lib/gcc/pic32mx/4.5.2/../../../../pic32mx/lib/libpic32.a(vector27.o)

.bss%z126       0x00000000        0x0
 .bss           0x00000000        0x0 /opt/microchip/xc32/v1.22/bin/../lib/gcc/pic32mx/4.5.2/../../../../pic32mx/lib/libpic32.a(vector26.o)

.data%z127      0x00000000        0x0
 .data          0x00000000        0x0 /opt/microchip/xc32/v1.22/bin/../lib/gcc/pic32mx/4.5.2/../../../../pic32mx/lib/libpic32.a(vector26.o)

.bss%z128       0x00000000        0x0
 .bss           0x00000000        0x0 /opt/microchip/xc32/v1.22/bin/../lib/gcc/pic32mx/4.5.2/../../../../pic32mx/lib/libpic32.a(vector25.o)

.data%z129      0x00000000        0x0
 .data          0x00000000        0x0 /opt/microchip/xc32/v1.22/bin/../lib/gcc/pic32mx/4.5.2/../../../../pic32mx/lib/libpic32.a(vector25.o)

.bss%z130       0x00000000        0x0
 .bss           0x00000000        0x0 /opt/microchip/xc32/v1.22/bin/../lib/gcc/pic32mx/4.5.2/../../../../pic32mx/lib/libpic32.a(vector24.o)

.data%z131      0x00000000        0x0
 .data          0x00000000        0x0 /opt/microchip/xc32/v1.22/bin/../lib/gcc/pic32mx/4.5.2/../../../../pic32mx/lib/libpic32.a(vector24.o)

.bss%z132       0x00000000        0x0
 .bss           0x00000000        0x0 /opt/microchip/xc32/v1.22/bin/../lib/gcc/pic32mx/4.5.2/../../../../pic32mx/lib/libpic32.a(vector23.o)

.data%z133      0x00000000        0x0
 .data          0x00000000        0x0 /opt/microchip/xc32/v1.22/bin/../lib/gcc/pic32mx/4.5.2/../../../../pic32mx/lib/libpic32.a(vector23.o)

.bss%z134       0x00000000        0x0
 .bss           0x00000000        0x0 /opt/microchip/xc32/v1.22/bin/../lib/gcc/pic32mx/4.5.2/../../../../pic32mx/lib/libpic32.a(vector22.o)

.data%z135      0x00000000        0x0
 .data          0x00000000        0x0 /opt/microchip/xc32/v1.22/bin/../lib/gcc/pic32mx/4.5.2/../../../../pic32mx/lib/libpic32.a(vector22.o)

.bss%z136       0x00000000        0x0
 .bss           0x00000000        0x0 /opt/microchip/xc32/v1.22/bin/../lib/gcc/pic32mx/4.5.2/../../../../pic32mx/lib/libpic32.a(vector21.o)

.data%z137      0x00000000        0x0
 .data          0x00000000        0x0 /opt/microchip/xc32/v1.22/bin/../lib/gcc/pic32mx/4.5.2/../../../../pic32mx/lib/libpic32.a(vector21.o)

.bss%z138       0x00000000        0x0
 .bss           0x00000000        0x0 /opt/microchip/xc32/v1.22/bin/../lib/gcc/pic32mx/4.5.2/../../../../pic32mx/lib/libpic32.a(vector20.o)

.data%z139      0x00000000        0x0
 .data          0x00000000        0x0 /opt/microchip/xc32/v1.22/bin/../lib/gcc/pic32mx/4.5.2/../../../../pic32mx/lib/libpic32.a(vector20.o)

.bss%z140       0x00000000        0x0
 .bss           0x00000000        0x0 /opt/microchip/xc32/v1.22/bin/../lib/gcc/pic32mx/4.5.2/../../../../pic32mx/lib/libpic32.a(vector19.o)

.data%z141      0x00000000        0x0
 .data          0x00000000        0x0 /opt/microchip/xc32/v1.22/bin/../lib/gcc/pic32mx/4.5.2/../../../../pic32mx/lib/libpic32.a(vector19.o)

.bss%z142       0x00000000        0x0
 .bss           0x00000000        0x0 /opt/microchip/xc32/v1.22/bin/../lib/gcc/pic32mx/4.5.2/../../../../pic32mx/lib/libpic32.a(vector18.o)

.data%z143      0x00000000        0x0
 .data          0x00000000        0x0 /opt/microchip/xc32/v1.22/bin/../lib/gcc/pic32mx/4.5.2/../../../../pic32mx/lib/libpic32.a(vector18.o)

.bss%z144       0x00000000        0x0
 .bss           0x00000000        0x0 /opt/microchip/xc32/v1.22/bin/../lib/gcc/pic32mx/4.5.2/../../../../pic32mx/lib/libpic32.a(vector17.o)

.data%z145      0x00000000        0x0
 .data          0x00000000        0x0 /opt/microchip/xc32/v1.22/bin/../lib/gcc/pic32mx/4.5.2/../../../../pic32mx/lib/libpic32.a(vector17.o)

.bss%z146       0x00000000        0x0
 .bss           0x00000000        0x0 /opt/microchip/xc32/v1.22/bin/../lib/gcc/pic32mx/4.5.2/../../../../pic32mx/lib/libpic32.a(vector16.o)

.data%z147      0x00000000        0x0
 .data          0x00000000        0x0 /opt/microchip/xc32/v1.22/bin/../lib/gcc/pic32mx/4.5.2/../../../../pic32mx/lib/libpic32.a(vector16.o)

.bss%z148       0x00000000        0x0
 .bss           0x00000000        0x0 /opt/microchip/xc32/v1.22/bin/../lib/gcc/pic32mx/4.5.2/../../../../pic32mx/lib/libpic32.a(vector14.o)

.data%z149      0x00000000        0x0
 .data          0x00000000        0x0 /opt/microchip/xc32/v1.22/bin/../lib/gcc/pic32mx/4.5.2/../../../../pic32mx/lib/libpic32.a(vector14.o)

.bss%z150       0x00000000        0x0
 .bss           0x00000000        0x0 /opt/microchip/xc32/v1.22/bin/../lib/gcc/pic32mx/4.5.2/../../../../pic32mx/lib/libpic32.a(vector13.o)

.data%z151      0x00000000        0x0
 .data          0x00000000        0x0 /opt/microchip/xc32/v1.22/bin/../lib/gcc/pic32mx/4.5.2/../../../../pic32mx/lib/libpic32.a(vector13.o)

.bss%z152       0x00000000        0x0
 .bss           0x00000000        0x0 /opt/microchip/xc32/v1.22/bin/../lib/gcc/pic32mx/4.5.2/../../../../pic32mx/lib/libpic32.a(vector12.o)

.data%z153      0x00000000        0x0
 .data          0x00000000        0x0 /opt/microchip/xc32/v1.22/bin/../lib/gcc/pic32mx/4.5.2/../../../../pic32mx/lib/libpic32.a(vector12.o)

.bss%z154       0x00000000        0x0
 .bss           0x00000000        0x0 /opt/microchip/xc32/v1.22/bin/../lib/gcc/pic32mx/4.5.2/../../../../pic32mx/lib/libpic32.a(vector11.o)

.data%z155      0x00000000        0x0
 .data          0x00000000        0x0 /opt/microchip/xc32/v1.22/bin/../lib/gcc/pic32mx/4.5.2/../../../../pic32mx/lib/libpic32.a(vector11.o)

.bss%z156       0x00000000        0x0
 .bss           0x00000000        0x0 /opt/microchip/xc32/v1.22/bin/../lib/gcc/pic32mx/4.5.2/../../../../pic32mx/lib/libpic32.a(vector10.o)

.data%z157      0x00000000        0x0
 .data          0x00000000        0x0 /opt/microchip/xc32/v1.22/bin/../lib/gcc/pic32mx/4.5.2/../../../../pic32mx/lib/libpic32.a(vector10.o)

.bss%z158       0x00000000        0x0
 .bss           0x00000000        0x0 /opt/microchip/xc32/v1.22/bin/../lib/gcc/pic32mx/4.5.2/../../../../pic32mx/lib/libpic32.a(vector9.o)

.data%z159      0x00000000        0x0
 .data          0x00000000        0x0 /opt/microchip/xc32/v1.22/bin/../lib/gcc/pic32mx/4.5.2/../../../../pic32mx/lib/libpic32.a(vector9.o)

.bss%z160       0x00000000        0x0
 .bss           0x00000000        0x0 /opt/microchip/xc32/v1.22/bin/../lib/gcc/pic32mx/4.5.2/../../../../pic32mx/lib/libpic32.a(vector8.o)

.data%z161      0x00000000        0x0
 .data          0x00000000        0x0 /opt/microchip/xc32/v1.22/bin/../lib/gcc/pic32mx/4.5.2/../../../../pic32mx/lib/libpic32.a(vector8.o)

.bss%z162       0x00000000        0x0
 .bss           0x00000000        0x0 /opt/microchip/xc32/v1.22/bin/../lib/gcc/pic32mx/4.5.2/../../../../pic32mx/lib/libpic32.a(vector7.o)

.data%z163      0x00000000        0x0
 .data          0x00000000        0x0 /opt/microchip/xc32/v1.22/bin/../lib/gcc/pic32mx/4.5.2/../../../../pic32mx/lib/libpic32.a(vector7.o)

.bss%z164       0x00000000        0x0
 .bss           0x00000000        0x0 /opt/microchip/xc32/v1.22/bin/../lib/gcc/pic32mx/4.5.2/../../../../pic32mx/lib/libpic32.a(vector6.o)

.data%z165      0x00000000        0x0
 .data          0x00000000        0x0 /opt/microchip/xc32/v1.22/bin/../lib/gcc/pic32mx/4.5.2/../../../../pic32mx/lib/libpic32.a(vector6.o)

.bss%z166       0x00000000        0x0
 .bss           0x00000000        0x0 /opt/microchip/xc32/v1.22/bin/../lib/gcc/pic32mx/4.5.2/../../../../pic32mx/lib/libpic32.a(vector5.o)

.data%z167      0x00000000        0x0
 .data          0x00000000        0x0 /opt/microchip/xc32/v1.22/bin/../lib/gcc/pic32mx/4.5.2/../../../../pic32mx/lib/libpic32.a(vector5.o)

.bss%z168       0x00000000        0x0
 .bss           0x00000000        0x0 /opt/microchip/xc32/v1.22/bin/../lib/gcc/pic32mx/4.5.2/../../../../pic32mx/lib/libpic32.a(vector3.o)

.data%z169      0x00000000        0x0
 .data          0x00000000        0x0 /opt/microchip/xc32/v1.22/bin/../lib/gcc/pic32mx/4.5.2/../../../../pic32mx/lib/libpic32.a(vector3.o)

.bss%z170       0x00000000        0x0
 .bss           0x00000000        0x0 /opt/microchip/xc32/v1.22/bin/../lib/gcc/pic32mx/4.5.2/../../../../pic32mx/lib/libpic32.a(vector2.o)

.data%z171      0x00000000        0x0
 .data          0x00000000        0x0 /opt/microchip/xc32/v1.22/bin/../lib/gcc/pic32mx/4.5.2/../../../../pic32mx/lib/libpic32.a(vector2.o)

.bss%z172       0x00000000        0x0
 .bss           0x00000000        0x0 /opt/microchip/xc32/v1.22/bin/../lib/gcc/pic32mx/4.5.2/../../../../pic32mx/lib/libpic32.a(vector0.o)

.data%z173      0x00000000        0x0
 .data          0x00000000        0x0 /opt/microchip/xc32/v1.22/bin/../lib/gcc/pic32mx/4.5.2/../../../../pic32mx/lib/libpic32.a(vector0.o)

.bss%z174       0x00000000        0x0
 .bss           0x00000000        0x0 /opt/microchip/xc32/v1.22/bin/../lib/gcc/pic32mx/4.5.2/../../../../pic32mx/lib/libpic32.a(general-exception.o)

.data%z175      0x00000000        0x0
 .data          0x00000000        0x0 /opt/microchip/xc32/v1.22/bin/../lib/gcc/pic32mx/4.5.2/../../../../pic32mx/lib/libpic32.a(general-exception.o)

.bss%z176       0x00000000        0x0
 .bss           0x00000000        0x0 /opt/microchip/xc32/v1.22/bin/../lib/gcc/pic32mx/4.5.2/../../../../pic32mx/lib/libpic32.a(default-nmi-handler.o)

.data%z177      0x00000000        0x0
 .data          0x00000000        0x0 /opt/microchip/xc32/v1.22/bin/../lib/gcc/pic32mx/4.5.2/../../../../pic32mx/lib/libpic32.a(default-nmi-handler.o)

.bss%z178       0x00000000        0x0
 .bss           0x00000000        0x0 /opt/microchip/xc32/v1.22/bin/../lib/gcc/pic32mx/4.5.2/../../../../pic32mx/lib/libpic32.a(default-on-bootstrap.o)

.data%z179      0x00000000        0x0
 .data          0x00000000        0x0 /opt/microchip/xc32/v1.22/bin/../lib/gcc/pic32mx/4.5.2/../../../../pic32mx/lib/libpic32.a(default-on-bootstrap.o)

.bss%z180       0x00000000        0x0
 .bss           0x00000000        0x0 /opt/microchip/xc32/v1.22/bin/../lib/gcc/pic32mx/4.5.2/../../../../pic32mx/lib/libpic32.a(default-on-reset.o)

.data%z181      0x00000000        0x0
 .data          0x00000000        0x0 /opt/microchip/xc32/v1.22/bin/../lib/gcc/pic32mx/4.5.2/../../../../pic32mx/lib/libpic32.a(default-on-reset.o)

.bss%z182       0x00000000        0x0
 .bss           0x00000000        0x0 /opt/microchip/xc32/v1.22/bin/../lib/gcc/pic32mx/4.5.2/../../../../pic32mx/lib/libpic32.a(default-bootstrap-exception-handler.o)

.data%z183      0x00000000        0x0
 .data          0x00000000        0x0 /opt/microchip/xc32/v1.22/bin/../lib/gcc/pic32mx/4.5.2/../../../../pic32mx/lib/libpic32.a(default-bootstrap-exception-handler.o)

.bss%z184       0x00000000        0x0
 .bss           0x00000000        0x0 /opt/microchip/xc32/v1.22/bin/../lib/gcc/pic32mx/4.5.2/../../../../pic32mx/lib/libpic32.a(strlen.o)

.data%z185      0x00000000        0x0
 .data          0x00000000        0x0 /opt/microchip/xc32/v1.22/bin/../lib/gcc/pic32mx/4.5.2/../../../../pic32mx/lib/libpic32.a(strlen.o)

.bss%z186       0x00000000        0x0
 .bss           0x00000000        0x0 /opt/microchip/xc32/v1.22/bin/../lib/gcc/pic32mx/4.5.2/../../../../pic32mx/lib/libpic32.a(memset.o)

.data%z187      0x00000000        0x0
 .data          0x00000000        0x0 /opt/microchip/xc32/v1.22/bin/../lib/gcc/pic32mx/4.5.2/../../../../pic32mx/lib/libpic32.a(memset.o)

.bss%z188       0x00000000        0x0
 .bss           0x00000000        0x0 /opt/microchip/xc32/v1.22/bin/../lib/gcc/pic32mx/4.5.2/../../../../pic32mx/lib/libpic32.a(memcpy.o)

.data%z189      0x00000000        0x0
 .data          0x00000000        0x0 /opt/microchip/xc32/v1.22/bin/../lib/gcc/pic32mx/4.5.2/../../../../pic32mx/lib/libpic32.a(memcpy.o)

.bss%z190       0x00000000        0x0
 .bss           0x00000000        0x0 /opt/microchip/xc32/v1.22/bin/../lib/gcc/pic32mx/4.5.2/../../../../pic32mx/lib/libpic32.a(memcmp.o)

.data%z191      0x00000000        0x0
 .data          0x00000000        0x0 /opt/microchip/xc32/v1.22/bin/../lib/gcc/pic32mx/4.5.2/../../../../pic32mx/lib/libpic32.a(memcmp.o)

.bss%z192       0x00000000        0x0
 .bss           0x00000000        0x0 /opt/microchip/xc32/v1.22/bin/../lib/gcc/pic32mx/4.5.2/../../../../pic32mx/lib/libmchp_peripheral_32MX795F512L.a(_ports_tbl_libp.o)

.data%z193      0x00000000        0x0
 .data          0x00000000        0x0 /opt/microchip/xc32/v1.22/bin/../lib/gcc/pic32mx/4.5.2/../../../../pic32mx/lib/libmchp_peripheral_32MX795F512L.a(_ports_tbl_libp.o)

.bss%z194       0x00000000        0x0
 .bss           0x00000000        0x0 /opt/microchip/xc32/v1.22/bin/../lib/gcc/pic32mx/4.5.2/../../../../pic32mx/lib/libmchp_peripheral_32MX795F512L.a(port_set_pins_digital_out_lib.o)

.data%z195      0x00000000        0x0
 .data          0x00000000        0x0 /opt/microchip/xc32/v1.22/bin/../lib/gcc/pic32mx/4.5.2/../../../../pic32mx/lib/libmchp_peripheral_32MX795F512L.a(port_set_pins_digital_out_lib.o)

.bss%z196       0x00000000        0x0
 .bss           0x00000000        0x0 /opt/microchip/xc32/v1.22/bin/../lib/gcc/pic32mx/4.5.2/../../../../pic32mx/lib/libmchp_peripheral_32MX795F512L.a(port_set_pins_digital_in_lib.o)

.data%z197      0x00000000        0x0
 .data          0x00000000        0x0 /opt/microchip/xc32/v1.22/bin/../lib/gcc/pic32mx/4.5.2/../../../../pic32mx/lib/libmchp_peripheral_32MX795F512L.a(port_set_pins_digital_in_lib.o)

.bss%z198       0x00000000        0x0
 .bss           0x00000000        0x0 /opt/microchip/xc32/v1.22/bin/../lib/gcc/pic32mx/4.5.2/../../../../pic32mx/lib/libmchp_peripheral_32MX795F512L.a(int_tbl_lib.o)

.data%z199      0x00000000        0x0
 .data          0x00000000        0x0 /opt/microchip/xc32/v1.22/bin/../lib/gcc/pic32mx/4.5.2/../../../../pic32mx/lib/libmchp_peripheral_32MX795F512L.a(int_tbl_lib.o)

.bss%z200       0x00000000        0x0
 .bss           0x00000000        0x0 /opt/microchip/xc32/v1.22/bin/../lib/gcc/pic32mx/4.5.2/../../../../pic32mx/lib/libmchp_peripheral_32MX795F512L.a(eth_miim_access.o)

.data%z201      0x00000000        0x0
 .data          0x00000000        0x0 /opt/microchip/xc32/v1.22/bin/../lib/gcc/pic32mx/4.5.2/../../../../pic32mx/lib/libmchp_peripheral_32MX795F512L.a(eth_miim_access.o)

.bss%z202       0x00000000        0x0
 .bss           0x00000000        0x0 /opt/microchip/xc32/v1.22/bin/../lib/gcc/pic32mx/4.5.2/../../../../pic32mx/lib/libmchp_peripheral_32MX795F512L.a(_eth_append_busy_list_lib.o)

.data%z203      0x00000000        0x0
 .data          0x00000000        0x0 /opt/microchip/xc32/v1.22/bin/../lib/gcc/pic32mx/4.5.2/../../../../pic32mx/lib/libmchp_peripheral_32MX795F512L.a(_eth_append_busy_list_lib.o)

.bss%z204       0x00000000        0x0
 .bss           0x00000000        0x0 /opt/microchip/xc32/v1.22/bin/../lib/gcc/pic32mx/4.5.2/../../../../pic32mx/lib/libmchp_peripheral_32MX795F512L.a(eth_tx_packet_lib.o)

.data%z205      0x00000000        0x0
 .data          0x00000000        0x0 /opt/microchip/xc32/v1.22/bin/../lib/gcc/pic32mx/4.5.2/../../../../pic32mx/lib/libmchp_peripheral_32MX795F512L.a(eth_tx_packet_lib.o)

.bss%z206       0x00000000        0x0
 .bss           0x00000000        0x0 /opt/microchip/xc32/v1.22/bin/../lib/gcc/pic32mx/4.5.2/../../../../pic32mx/lib/libmchp_peripheral_32MX795F512L.a(eth_rx_set_buffer_size_lib.o)

.data%z207      0x00000000        0x0
 .data          0x00000000        0x0 /opt/microchip/xc32/v1.22/bin/../lib/gcc/pic32mx/4.5.2/../../../../pic32mx/lib/libmchp_peripheral_32MX795F512L.a(eth_rx_set_buffer_size_lib.o)

.bss%z208       0x00000000        0x0
 .bss           0x00000000        0x0 /opt/microchip/xc32/v1.22/bin/../lib/gcc/pic32mx/4.5.2/../../../../pic32mx/lib/libmchp_peripheral_32MX795F512L.a(eth_rx_get_packet_lib.o)

.data%z209      0x00000000        0x0
 .data          0x00000000        0x0 /opt/microchip/xc32/v1.22/bin/../lib/gcc/pic32mx/4.5.2/../../../../pic32mx/lib/libmchp_peripheral_32MX795F512L.a(eth_rx_get_packet_lib.o)

.bss%z210       0x00000000        0x0
 .bss           0x00000000        0x0 /opt/microchip/xc32/v1.22/bin/../lib/gcc/pic32mx/4.5.2/../../../../pic32mx/lib/libmchp_peripheral_32MX795F512L.a(eth_rx_filters_lib.o)

.data%z211      0x00000000        0x0
 .data          0x00000000        0x0 /opt/microchip/xc32/v1.22/bin/../lib/gcc/pic32mx/4.5.2/../../../../pic32mx/lib/libmchp_peripheral_32MX795F512L.a(eth_rx_filters_lib.o)

.bss%z212       0x00000000        0x0
 .bss           0x00000000        0x0 /opt/microchip/xc32/v1.22/bin/../lib/gcc/pic32mx/4.5.2/../../../../pic32mx/lib/libmchp_peripheral_32MX795F512L.a(eth_rx_buffers_append_lib.o)

.data%z213      0x00000000        0x0
 .data          0x00000000        0x0 /opt/microchip/xc32/v1.22/bin/../lib/gcc/pic32mx/4.5.2/../../../../pic32mx/lib/libmchp_peripheral_32MX795F512L.a(eth_rx_buffers_append_lib.o)

.bss%z214       0x00000000        0x0
 .bss           0x00000000        0x0 /opt/microchip/xc32/v1.22/bin/../lib/gcc/pic32mx/4.5.2/../../../../pic32mx/lib/libmchp_peripheral_32MX795F512L.a(eth_mac_set_address_max_lib.o)

.data%z215      0x00000000        0x0
 .data          0x00000000        0x0 /opt/microchip/xc32/v1.22/bin/../lib/gcc/pic32mx/4.5.2/../../../../pic32mx/lib/libmchp_peripheral_32MX795F512L.a(eth_mac_set_address_max_lib.o)

.bss%z216       0x00000000        0x0
 .bss           0x00000000        0x0 /opt/microchip/xc32/v1.22/bin/../lib/gcc/pic32mx/4.5.2/../../../../pic32mx/lib/libmchp_peripheral_32MX795F512L.a(eth_mac_open_lib.o)

.data%z217      0x00000000        0x0
 .data          0x00000000        0x0 /opt/microchip/xc32/v1.22/bin/../lib/gcc/pic32mx/4.5.2/../../../../pic32mx/lib/libmchp_peripheral_32MX795F512L.a(eth_mac_open_lib.o)

.bss%z218       0x00000000        0x0
 .bss           0x00000000        0x0 /opt/microchip/xc32/v1.22/bin/../lib/gcc/pic32mx/4.5.2/../../../../pic32mx/lib/libmchp_peripheral_32MX795F512L.a(eth_init_lib.o)

.data%z219      0x00000000        0x0
 .data          0x00000000        0x0 /opt/microchip/xc32/v1.22/bin/../lib/gcc/pic32mx/4.5.2/../../../../pic32mx/lib/libmchp_peripheral_32MX795F512L.a(eth_init_lib.o)

.bss%z220       0x00000000        0x0
 .bss           0x00000000        0x0 /opt/microchip/xc32/v1.22/bin/../lib/gcc/pic32mx/4.5.2/../../../../pic32mx/lib/libmchp_peripheral_32MX795F512L.a(eth_descriptors_add_lib.o)

.data%z221      0x00000000        0x0
 .data          0x00000000        0x0 /opt/microchip/xc32/v1.22/bin/../lib/gcc/pic32mx/4.5.2/../../../../pic32mx/lib/libmchp_peripheral_32MX795F512L.a(eth_descriptors_add_lib.o)

.bss%z222       0x00000000        0x0
 .bss           0x00000000        0x0 /opt/microchip/xc32/v1.22/bin/../lib/gcc/pic32mx/4.5.2/../../../../pic32mx/lib/libmchp_peripheral_32MX795F512L.a(eth_ack_packet_lib.o)

.data%z223      0x00000000        0x0
 .data          0x00000000        0x0 /opt/microchip/xc32/v1.22/bin/../lib/gcc/pic32mx/4.5.2/../../../../pic32mx/lib/libmchp_peripheral_32MX795F512L.a(eth_ack_packet_lib.o)

.bss%z224       0x00000000        0x0
 .bss           0x00000000        0x0 /opt/microchip/xc32/v1.22/bin/../lib/gcc/pic32mx/4.5.2/../../../../pic32mx/lib/libmchp_peripheral.a(read_core_timer_lib.o)

.data%z225      0x00000000        0x0
 .data          0x00000000        0x0 /opt/microchip/xc32/v1.22/bin/../lib/gcc/pic32mx/4.5.2/../../../../pic32mx/lib/libmchp_peripheral.a(read_core_timer_lib.o)

.bss%z226       0x00000000        0x0
 .bss           0x00000000        0x0 /opt/microchip/xc32/v1.22/bin/../lib/gcc/pic32mx/4.5.2/../../../../pic32mx/lib/./proc/32MX795F512L/processor.o

.data%z227      0x00000000        0x0
 .data          0x00000000        0x0 /opt/microchip/xc32/v1.22/bin/../lib/gcc/pic32mx/4.5.2/../../../../pic32mx/lib/./proc/32MX795F512L/processor.o

.bss%z228       0x00000000        0x0
 .bss           0x00000000        0x0 /opt/microchip/xc32/v1.22/bin/../lib/gcc/pic32mx/4.5.2/../../../../pic32mx/lib/./proc/32MX795F512L/default_isr_vectors.o

.data%z229      0x00000000        0x0
 .data          0x00000000        0x0 /opt/microchip/xc32/v1.22/bin/../lib/gcc/pic32mx/4.5.2/../../../../pic32mx/lib/./proc/32MX795F512L/default_isr_vectors.o

.bss%z230       0x00000000        0x0
 .bss           0x00000000        0x0 build/default/debug/src/echo.o

.data%z231      0x00000000        0x0
 .data          0x00000000        0x0 build/default/debug/src/echo.o

.bss%z232       0x00000000        0x0
 .bss           0x00000000        0x0 build/default/debug/src/ip_lwip.o

.data%z233      0x00000000        0x0
 .data          0x00000000        0x0 build/default/debug/src/ip_lwip.o

.bss%z234       0x00000000        0x0
 .bss           0x00000000        0x0 build/default/debug/src/main.o

.data%z235      0x00000000        0x0
 .data          0x00000000        0x0 build/default/debug/src/main.o

.bss%z236       0x00000000        0x0
 .bss           0x00000000        0x0 build/default/debug/lwip-1.4.1/src/netif/slipif.o

.data%z237      0x00000000        0x0
 .data          0x00000000        0x0 build/default/debug/lwip-1.4.1/src/netif/slipif.o

.bss%z238       0x00000000        0x0
 .bss           0x00000000        0x0 build/default/debug/lwip-1.4.1/src/netif/ethernetif.o

.data%z239      0x00000000        0x0
 .data          0x00000000        0x0 build/default/debug/lwip-1.4.1/src/netif/ethernetif.o

.data%z240      0x00000000        0x0
 .data          0x00000000        0x0 build/default/debug/lwip-1.4.1/src/netif/etharp.o

.bss%z241       0x00000000        0x0
 .bss           0x00000000        0x0 build/default/debug/lwip-1.4.1/src/netif/ppp/ppp.o

.data%z242      0x00000000        0x0
 .data          0x00000000        0x0 build/default/debug/lwip-1.4.1/src/netif/ppp/ppp.o

.bss%z243       0x00000000        0x0
 .bss           0x00000000        0x0 build/default/debug/lwip-1.4.1/src/netif/ppp/lcp.o

.data%z244      0x00000000        0x0
 .data          0x00000000        0x0 build/default/debug/lwip-1.4.1/src/netif/ppp/lcp.o

.bss%z245       0x00000000        0x0
 .bss           0x00000000        0x0 build/default/debug/lwip-1.4.1/src/netif/ppp/randm.o

.data%z246      0x00000000        0x0
 .data          0x00000000        0x0 build/default/debug/lwip-1.4.1/src/netif/ppp/randm.o

.bss%z247       0x00000000        0x0
 .bss           0x00000000        0x0 build/default/debug/lwip-1.4.1/src/netif/ppp/pap.o

.data%z248      0x00000000        0x0
 .data          0x00000000        0x0 build/default/debug/lwip-1.4.1/src/netif/ppp/pap.o

.bss%z249       0x00000000        0x0
 .bss           0x00000000        0x0 build/default/debug/lwip-1.4.1/src/netif/ppp/chpms.o

.data%z250      0x00000000        0x0
 .data          0x00000000        0x0 build/default/debug/lwip-1.4.1/src/netif/ppp/chpms.o

.bss%z251       0x00000000        0x0
 .bss           0x00000000        0x0 build/default/debug/lwip-1.4.1/src/netif/ppp/auth.o

.data%z252      0x00000000        0x0
 .data          0x00000000        0x0 build/default/debug/lwip-1.4.1/src/netif/ppp/auth.o

.bss%z253       0x00000000        0x0
 .bss           0x00000000        0x0 build/default/debug/lwip-1.4.1/src/netif/ppp/magic.o

.data%z254      0x00000000        0x0
 .data          0x00000000        0x0 build/default/debug/lwip-1.4.1/src/netif/ppp/magic.o

.bss%z255       0x00000000        0x0
 .bss           0x00000000        0x0 build/default/debug/lwip-1.4.1/src/netif/ppp/md5.o

.data%z256      0x00000000        0x0
 .data          0x00000000        0x0 build/default/debug/lwip-1.4.1/src/netif/ppp/md5.o

.bss%z257       0x00000000        0x0
 .bss           0x00000000        0x0 build/default/debug/lwip-1.4.1/src/netif/ppp/fsm.o

.data%z258      0x00000000        0x0
 .data          0x00000000        0x0 build/default/debug/lwip-1.4.1/src/netif/ppp/fsm.o

.bss%z259       0x00000000        0x0
 .bss           0x00000000        0x0 build/default/debug/lwip-1.4.1/src/netif/ppp/ipcp.o

.data%z260      0x00000000        0x0
 .data          0x00000000        0x0 build/default/debug/lwip-1.4.1/src/netif/ppp/ipcp.o

.bss%z261       0x00000000        0x0
 .bss           0x00000000        0x0 build/default/debug/lwip-1.4.1/src/netif/ppp/vj.o

.data%z262      0x00000000        0x0
 .data          0x00000000        0x0 build/default/debug/lwip-1.4.1/src/netif/ppp/vj.o

.bss%z263       0x00000000        0x0
 .bss           0x00000000        0x0 build/default/debug/lwip-1.4.1/src/netif/ppp/chap.o

.data%z264      0x00000000        0x0
 .data          0x00000000        0x0 build/default/debug/lwip-1.4.1/src/netif/ppp/chap.o

.bss%z265       0x00000000        0x0
 .bss           0x00000000        0x0 build/default/debug/lwip-1.4.1/src/netif/ppp/ppp_oe.o

.data%z266      0x00000000        0x0
 .data          0x00000000        0x0 build/default/debug/lwip-1.4.1/src/netif/ppp/ppp_oe.o

.bss%z267       0x00000000        0x0
 .bss           0x00000000        0x0 build/default/debug/lwip-1.4.1/src/core/tcp.o

.data%z268      0x00000000        0x0
 .data          0x00000000        0x0 build/default/debug/lwip-1.4.1/src/core/tcp.o

.bss%z269       0x00000000        0x0
 .bss           0x00000000        0x0 build/default/debug/lwip-1.4.1/src/core/sys.o

.data%z270      0x00000000        0x0
 .data          0x00000000        0x0 build/default/debug/lwip-1.4.1/src/core/sys.o

.bss%z271       0x00000000        0x0
 .bss           0x00000000        0x0 build/default/debug/lwip-1.4.1/src/core/init.o

.data%z272      0x00000000        0x0
 .data          0x00000000        0x0 build/default/debug/lwip-1.4.1/src/core/init.o

.bss%z273       0x00000000        0x0
 .bss           0x00000000        0x0 build/default/debug/lwip-1.4.1/src/core/udp.o

.data%z274      0x00000000        0x0
 .data          0x00000000        0x0 build/default/debug/lwip-1.4.1/src/core/udp.o

.bss%z275       0x00000000        0x0
 .bss           0x00000000        0x0 build/default/debug/lwip-1.4.1/src/core/dns.o

.data%z276      0x00000000        0x0
 .data          0x00000000        0x0 build/default/debug/lwip-1.4.1/src/core/dns.o

.bss%z277       0x00000000        0x0
 .bss           0x00000000        0x0 build/default/debug/lwip-1.4.1/src/core/raw.o

.data%z278      0x00000000        0x0
 .data          0x00000000        0x0 build/default/debug/lwip-1.4.1/src/core/raw.o

.bss%z279       0x00000000        0x0
 .bss           0x00000000        0x0 build/default/debug/lwip-1.4.1/src/core/def.o

.data%z280      0x00000000        0x0
 .data          0x00000000        0x0 build/default/debug/lwip-1.4.1/src/core/def.o

.data%z281      0x00000000        0x0
 .data          0x00000000        0x0 build/default/debug/lwip-1.4.1/src/core/tcp_in.o

.bss%z282       0x00000000        0x0
 .bss           0x00000000        0x0 build/default/debug/lwip-1.4.1/src/core/stats.o

.data%z283      0x00000000        0x0
 .data          0x00000000        0x0 build/default/debug/lwip-1.4.1/src/core/stats.o

.bss%z284       0x00000000        0x0
 .bss           0x00000000        0x0 build/default/debug/lwip-1.4.1/src/core/tcp_out.o

.data%z285      0x00000000        0x0
 .data          0x00000000        0x0 build/default/debug/lwip-1.4.1/src/core/tcp_out.o

.bss%z286       0x00000000        0x0
 .bss           0x00000000        0x0 build/default/debug/lwip-1.4.1/src/core/dhcp.o

.data%z287      0x00000000        0x0
 .data          0x00000000        0x0 build/default/debug/lwip-1.4.1/src/core/dhcp.o

.bss%z288       0x00000000        0x0
 .bss           0x00000000        0x0 build/default/debug/lwip-1.4.1/src/core/mem.o

.data%z289      0x00000000        0x0
 .data          0x00000000        0x0 build/default/debug/lwip-1.4.1/src/core/mem.o

.bss%z290       0x00000000        0x0
 .bss           0x00000000        0x0 build/default/debug/lwip-1.4.1/src/core/pbuf.o

.data%z291      0x00000000        0x0
 .data          0x00000000        0x0 build/default/debug/lwip-1.4.1/src/core/pbuf.o

.bss%z292       0x00000000        0x0
 .bss           0x00000000        0x0 build/default/debug/lwip-1.4.1/src/core/netif.o

.data%z293      0x00000000        0x0
 .data          0x00000000        0x0 build/default/debug/lwip-1.4.1/src/core/netif.o

.data%z294      0x00000000        0x0
 .data          0x00000000        0x0 build/default/debug/lwip-1.4.1/src/core/memp.o

.bss%z295       0x00000000        0x0
 .bss           0x00000000        0x0 build/default/debug/lwip-1.4.1/src/core/timers.o

.data%z296      0x00000000        0x0
 .data          0x00000000        0x0 build/default/debug/lwip-1.4.1/src/core/timers.o

.bss%z297       0x00000000        0x0
 .bss           0x00000000        0x0 build/default/debug/lwip-1.4.1/src/core/snmp/mib_structs.o

.data%z298      0x00000000        0x0
 .data          0x00000000        0x0 build/default/debug/lwip-1.4.1/src/core/snmp/mib_structs.o

.bss%z299       0x00000000        0x0
 .bss           0x00000000        0x0 build/default/debug/lwip-1.4.1/src/core/snmp/msg_in.o

.data%z300      0x00000000        0x0
 .data          0x00000000        0x0 build/default/debug/lwip-1.4.1/src/core/snmp/msg_in.o

.bss%z301       0x00000000        0x0
 .bss           0x00000000        0x0 build/default/debug/lwip-1.4.1/src/core/snmp/asn1_dec.o

.data%z302      0x00000000        0x0
 .data          0x00000000        0x0 build/default/debug/lwip-1.4.1/src/core/snmp/asn1_dec.o

.bss%z303       0x00000000        0x0
 .bss           0x00000000        0x0 build/default/debug/lwip-1.4.1/src/core/snmp/mib2.o

.data%z304      0x00000000        0x0
 .data          0x00000000        0x0 build/default/debug/lwip-1.4.1/src/core/snmp/mib2.o

.bss%z305       0x00000000        0x0
 .bss           0x00000000        0x0 build/default/debug/lwip-1.4.1/src/core/snmp/msg_out.o

.data%z306      0x00000000        0x0
 .data          0x00000000        0x0 build/default/debug/lwip-1.4.1/src/core/snmp/msg_out.o

.bss%z307       0x00000000        0x0
 .bss           0x00000000        0x0 build/default/debug/lwip-1.4.1/src/core/snmp/asn1_enc.o

.data%z308      0x00000000        0x0
 .data          0x00000000        0x0 build/default/debug/lwip-1.4.1/src/core/snmp/asn1_enc.o

.bss%z309       0x00000000        0x0
 .bss           0x00000000        0x0 build/default/debug/lwip-1.4.1/src/core/ipv4/igmp.o

.data%z310      0x00000000        0x0
 .data          0x00000000        0x0 build/default/debug/lwip-1.4.1/src/core/ipv4/igmp.o

.bss%z311       0x00000000        0x0
 .bss           0x00000000        0x0 build/default/debug/lwip-1.4.1/src/core/ipv4/ip.o

.data%z312      0x00000000        0x0
 .data          0x00000000        0x0 build/default/debug/lwip-1.4.1/src/core/ipv4/ip.o

.bss%z313       0x00000000        0x0
 .bss           0x00000000        0x0 build/default/debug/lwip-1.4.1/src/core/ipv4/ip_frag.o

.data%z314      0x00000000        0x0
 .data          0x00000000        0x0 build/default/debug/lwip-1.4.1/src/core/ipv4/ip_frag.o

.bss%z315       0x00000000        0x0
 .bss           0x00000000        0x0 build/default/debug/lwip-1.4.1/src/core/ipv4/inet.o

.data%z316      0x00000000        0x0
 .data          0x00000000        0x0 build/default/debug/lwip-1.4.1/src/core/ipv4/inet.o

.bss%z317       0x00000000        0x0
 .bss           0x00000000        0x0 build/default/debug/lwip-1.4.1/src/core/ipv4/icmp.o

.data%z318      0x00000000        0x0
 .data          0x00000000        0x0 build/default/debug/lwip-1.4.1/src/core/ipv4/icmp.o

.bss%z319       0x00000000        0x0
 .bss           0x00000000        0x0 build/default/debug/lwip-1.4.1/src/core/ipv4/inet_chksum.o

.data%z320      0x00000000        0x0
 .data          0x00000000        0x0 build/default/debug/lwip-1.4.1/src/core/ipv4/inet_chksum.o

.data%z321      0x00000000        0x0
 .data          0x00000000        0x0 build/default/debug/lwip-1.4.1/src/core/ipv4/ip_addr.o

.bss%z322       0x00000000        0x0
 .bss           0x00000000        0x0 build/default/debug/lwip-1.4.1/src/core/ipv4/autoip.o

.data%z323      0x00000000        0x0
 .data          0x00000000        0x0 build/default/debug/lwip-1.4.1/src/core/ipv4/autoip.o

.bss%z324       0x00000000        0x0
 .bss           0x00000000        0x0 build/default/debug/lwip-1.4.1/src/api/api_lib.o

.data%z325      0x00000000        0x0
 .data          0x00000000        0x0 build/default/debug/lwip-1.4.1/src/api/api_lib.o

.bss%z326       0x00000000        0x0
 .bss           0x00000000        0x0 build/default/debug/lwip-1.4.1/src/api/err.o

.data%z327      0x00000000        0x0
 .data          0x00000000        0x0 build/default/debug/lwip-1.4.1/src/api/err.o

.bss%z328       0x00000000        0x0
 .bss           0x00000000        0x0 build/default/debug/lwip-1.4.1/src/api/netifapi.o

.data%z329      0x00000000        0x0
 .data          0x00000000        0x0 build/default/debug/lwip-1.4.1/src/api/netifapi.o

.data%z330      0x00000000        0x0
 .data          0x00000000        0x0 build/default/debug/lwip-1.4.1/src/api/sockets.o

.bss%z331       0x00000000        0x0
 .bss           0x00000000        0x0 build/default/debug/lwip-1.4.1/src/api/tcpip.o

.data%z332      0x00000000        0x0
 .data          0x00000000        0x0 build/default/debug/lwip-1.4.1/src/api/tcpip.o

.bss%z333       0x00000000        0x0
 .bss           0x00000000        0x0 build/default/debug/lwip-1.4.1/src/api/netdb.o

.data%z334      0x00000000        0x0
 .data          0x00000000        0x0 build/default/debug/lwip-1.4.1/src/api/netdb.o

.bss%z335       0x00000000        0x0
 .bss           0x00000000        0x0 build/default/debug/lwip-1.4.1/src/api/netbuf.o

.data%z336      0x00000000        0x0
 .data          0x00000000        0x0 build/default/debug/lwip-1.4.1/src/api/netbuf.o

.bss%z337       0x00000000        0x0
 .bss           0x00000000        0x0 build/default/debug/lwip-1.4.1/src/api/api_msg.o

.data%z338      0x00000000        0x0
 .data          0x00000000        0x0 build/default/debug/lwip-1.4.1/src/api/api_msg.o

.bss%z339       0x00000000        0x0
 .bss           0x00000000        0x0 build/default/debug/freertos/queue.o

.data%z340      0x00000000        0x0
 .data          0x00000000        0x0 build/default/debug/freertos/queue.o

.bss%z341       0x00000000        0x0
 .bss           0x00000000        0x0 build/default/debug/freertos/croutine.o

.data%z342      0x00000000        0x0
 .data          0x00000000        0x0 build/default/debug/freertos/croutine.o

.bss%z343       0x00000000        0x0
 .bss           0x00000000        0x0 build/default/debug/freertos/tasks.o

.data%z344      0x00000000        0x0
 .data          0x00000000        0x0 build/default/debug/freertos/tasks.o

.bss%z345       0x00000000        0x0
 .bss           0x00000000        0x0 build/default/debug/freertos/list.o

.data%z346      0x00000000        0x0
 .data          0x00000000        0x0 build/default/debug/freertos/list.o

.bss%z347       0x00000000        0x0
 .bss           0x00000000        0x0 build/default/debug/freertos/port_asm.o

.data%z348      0x00000000        0x0
 .data          0x00000000        0x0 build/default/debug/freertos/port_asm.o

.data%z349      0x00000000        0x0
 .data          0x00000000        0x0 build/default/debug/freertos/port.o

.data%z350      0x00000000        0x0
 .data          0x00000000        0x0 build/default/debug/freertos/timers.o

.bss%z351       0x00000000        0x0
 .bss           0x00000000        0x0 build/default/debug/freertos/heap/heap_3.o

.data%z352      0x00000000        0x0
 .data          0x00000000        0x0 build/default/debug/freertos/heap/heap_3.o

.bss%z353       0x00000000        0x0
 .bss           0x00000000        0x0 build/default/debug/contrib/ports/microchip/ethernetif.o

.data%z354      0x00000000        0x0
 .data          0x00000000        0x0 build/default/debug/contrib/ports/microchip/ethernetif.o

.bss%z355       0x00000000        0x0
 .bss           0x00000000        0x0 build/default/debug/contrib/ports/microchip/sys_arch.o

.data%z356      0x00000000        0x0
 .data          0x00000000        0x0 build/default/debug/contrib/ports/microchip/sys_arch.o

.bss%z357       0x00000000        0x0
 .bss           0x00000000        0x0 build/default/debug/contrib/ports/microchip/sys_arch_raw.o

.data%z358      0x00000000        0x0
 .data          0x00000000        0x0 build/default/debug/contrib/ports/microchip/sys_arch_raw.o

.bss%z359       0x00000000        0x0
 .bss           0x00000000        0x0 build/default/debug/contrib/ports/microchip/netif/ETHPIC32ExtPhy.o

.data%z360      0x00000000        0x0
 .data          0x00000000        0x0 build/default/debug/contrib/ports/microchip/netif/ETHPIC32ExtPhy.o

.bss%z361       0x00000000        0x0
 .bss           0x00000000        0x0 build/default/debug/contrib/ports/microchip/netif/Microchip_eth.o

.data%z362      0x00000000        0x0
 .data          0x00000000        0x0 build/default/debug/contrib/ports/microchip/netif/Microchip_eth.o

.bss%z363       0x00000000        0x0
 .bss           0x00000000        0x0 build/default/debug/contrib/ports/microchip/netif/xadapter.o

.data%z364      0x00000000        0x0
 .data          0x00000000        0x0 build/default/debug/contrib/ports/microchip/netif/xadapter.o

.bss%z365       0x00000000        0x0
 .bss           0x00000000        0x0 build/default/debug/contrib/ports/microchip/netif/ETHPIC32ExtPhyDP83848.o

.data%z366      0x00000000        0x0
 .data          0x00000000        0x0 build/default/debug/contrib/ports/microchip/netif/ETHPIC32ExtPhyDP83848.o

.bss%z367       0x00000000        0x0
 .bss           0x00000000        0x0 /opt/microchip/xc32/v1.22/bin/../lib/gcc/pic32mx/4.5.2/../../../../pic32mx/lib/crt0.o

.data%z368      0x00000000        0x0
 .data          0x00000000        0x0 /opt/microchip/xc32/v1.22/bin/../lib/gcc/pic32mx/4.5.2/../../../../pic32mx/lib/crt0.o

.text           0x9d000000    0x146b0
 .text          0x9d000000     0x3b48 build/default/debug/lwip-1.4.1/src/core/tcp_in.o
                0x9d000000                tcp_input
 .text          0x9d003b48     0x3768 build/default/debug/lwip-1.4.1/src/api/sockets.o
                0x9d003b48                lwip_socket_init
                0x9d003f00                lwip_accept
                0x9d004250                lwip_bind
                0x9d0043c4                lwip_close
                0x9d00446c                lwip_connect
                0x9d004610                lwip_listen
                0x9d004754                lwip_recvfrom
                0x9d004ce0                lwip_read
                0x9d004d34                lwip_recv
                0x9d004d8c                lwip_send
                0x9d004f0c                lwip_sendto
                0x9d005134                lwip_socket
                0x9d0052c4                lwip_write
                0x9d005684                lwip_select
                0x9d006038                lwip_shutdown
                0x9d00630c                lwip_getpeername
                0x9d006358                lwip_getsockname
                0x9d0063a4                lwip_getsockopt
                0x9d006a5c                lwip_setsockopt
                0x9d00705c                lwip_ioctl
                0x9d007170                lwip_fcntl
 .text          0x9d0072b0     0x320c build/default/debug/freertos/tasks.o
                0x9d0072b0                xTaskGenericCreate
                0x9d007544                vTaskDelete
                0x9d0076d8                vTaskDelayUntil
                0x9d0078b0                vTaskDelay
                0x9d0079a4                uxTaskPriorityGet
                0x9d007a10                uxTaskPriorityGetFromISR
                0x9d007a84                vTaskPrioritySet
                0x9d007ce4                vTaskSuspend
                0x9d007e9c                prvTaskIsTaskSuspended
                0x9d007f40                vTaskResume
                0x9d00807c                xTaskResumeFromISR
                0x9d0081c4                vTaskStartScheduler
                0x9d0082cc                vTaskEndScheduler
                0x9d008344                vTaskSuspendAll
                0x9d008370                xTaskResumeAll
                0x9d008538                xTaskGetTickCount
                0x9d008564                xTaskGetTickCountFromISR
                0x9d008594                uxTaskGetNumberOfTasks
                0x9d0085b8                pcTaskGetTaskName
                0x9d00862c                xTaskIncrementTick
                0x9d008868                vTaskSwitchContext
                0x9d008968                vTaskPlaceOnEventList
                0x9d008a5c                vTaskPlaceOnUnorderedEventList
                0x9d008b88                vTaskPlaceOnEventListRestricted
                0x9d008c48                xTaskRemoveFromEventList
                0x9d008d88                xTaskRemoveFromUnorderedEventList
                0x9d008ec4                vTaskSetTimeOutState
                0x9d008f28                xTaskCheckForTimeOut
                0x9d009078                vTaskMissedYield
                0x9d0090a0                prvIdleTask
                0x9d009104                prvInitialiseTCBVariables
                0x9d00925c                prvInitialiseTaskLists
                0x9d009338                prvCheckTasksWaitingTermination
                0x9d0093fc                prvAddCurrentTaskToDelayedList
                0x9d0094a4                prvAllocateTCBAndStack
                0x9d009560                prvDeleteTCB
                0x9d0095ac                prvResetNextTaskUnblockTime
                0x9d009608                xTaskGetCurrentTaskHandle
                0x9d009634                xTaskGetSchedulerState
                0x9d009694                vTaskPriorityInherit
                0x9d009820                xTaskPriorityDisinherit
                0x9d0099ac                vTaskEnterCritical
                0x9d009a68                vTaskExitCritical
                0x9d009aec                uxTaskResetEventItemValue
                0x9d009b34                pvTaskIncrementMutexHeldCount
                0x9d009b74                ulTaskNotifyTake
                0x9d009ce8                xTaskNotifyWait
                0x9d009e98                xTaskNotify
                0x9d00a0c4                xTaskNotifyFromISR
                0x9d00a324                vTaskNotifyGiveFromISR
 .text          0x9d00a4bc     0x2df4 build/default/debug/lwip-1.4.1/src/core/dhcp.o
                0x9d00a838                dhcp_coarse_tmr
                0x9d00a910                dhcp_fine_tmr
                0x9d00ae18                dhcp_set_struct
                0x9d00ae68                dhcp_cleanup
                0x9d00aec0                dhcp_start
                0x9d00b0f0                dhcp_inform
                0x9d00b2d4                dhcp_network_changed
                0x9d00b834                dhcp_renew
                0x9d00bd08                dhcp_release
                0x9d00bef8                dhcp_stop
 .text          0x9d00d2b0     0x2810 build/default/debug/lwip-1.4.1/src/core/tcp_out.o
                0x9d00d500                tcp_send_fin
                0x9d00db58                tcp_write
                0x9d00e3e0                tcp_enqueue_flags
                0x9d00e6c0                tcp_send_empty_ack
                0x9d00e81c                tcp_output
                0x9d00f13c                tcp_rst
                0x9d00f3a4                tcp_rexmit_rto
                0x9d00f470                tcp_rexmit
                0x9d00f5bc                tcp_rexmit_fast
                0x9d00f6ec                tcp_keepalive
                0x9d00f814                tcp_zero_window_probe
 .text          0x9d00fac0     0x2670 build/default/debug/lwip-1.4.1/src/core/tcp.o
                0x9d00fac0                tcp_init
                0x9d00fae0                tcp_tmr
                0x9d00ff50                tcp_close
                0x9d00ffb8                tcp_shutdown
                0x9d0100e0                tcp_abandon
                0x9d01027c                tcp_abort
                0x9d0102b8                tcp_bind
                0x9d0104ac                tcp_listen_with_backlog
                0x9d0106a8                tcp_update_rcv_ann_wnd
                0x9d0107a8                tcp_recved
                0x9d010960                tcp_connect
                0x9d010c60                tcp_slowtmr
                0x9d011448                tcp_fasttmr
                0x9d011560                tcp_process_refused_data
                0x9d0116e8                tcp_segs_free
                0x9d011748                tcp_seg_free
                0x9d0117b4                tcp_setprio
                0x9d0117ec                tcp_seg_copy
                0x9d01186c                tcp_recv_null
                0x9d011aa8                tcp_alloc
                0x9d011c70                tcp_new
                0x9d011ca4                tcp_arg
                0x9d011cd8                tcp_recv
                0x9d011d0c                tcp_sent
                0x9d011d40                tcp_err
                0x9d011d74                tcp_accept
                0x9d011da8                tcp_poll
                0x9d011df0                tcp_pcb_purge
                0x9d011ef0                tcp_pcb_remove
                0x9d012028                tcp_next_iss
                0x9d01205c                tcp_eff_send_mss
                0x9d0120f4                tcp_debug_state_str
 .text          0x9d012130     0x2580 build/default/debug/lwip-1.4.1/src/api/api_msg.o
                0x9d012bc8                do_newconn
                0x9d012c34                netconn_alloc
                0x9d012db0                netconn_free
                0x9d0132d0                do_delconn
                0x9d0134d0                do_bind
                0x9d013788                do_connect
                0x9d0139b8                do_disconnect
                0x9d013a4c                do_listen
                0x9d013c74                do_send
                0x9d013de4                do_recv
                0x9d014258                do_write
                0x9d01438c                do_getaddr
                0x9d01454c                do_close

.text.vfprintf  0x9d0146b0     0x1bb0
 .text.vfprintf
                0x9d0146b0     0x1bb0 /opt/microchip/xc32/v1.22/bin/../lib/gcc/pic32mx/4.5.2/../../../../pic32mx/lib/libc.a(doprnt.o)
                0x9d0146b0                vfprintf

.text           0x9d016260     0xc8b8
 .text          0x9d016260     0x1b48 build/default/debug/freertos/queue.o
                0x9d016260                xQueueGenericReset
                0x9d0163e0                xQueueGenericCreate
                0x9d016518                xQueueCreateMutex
                0x9d01661c                xQueueGiveMutexRecursive
                0x9d0166e4                xQueueTakeMutexRecursive
                0x9d0167c4                xQueueCreateCountingSemaphore
                0x9d016890                xQueueGenericSend
                0x9d016c2c                xQueueGenericSendFromISR
                0x9d016e08                xQueueGiveFromISR
                0x9d016f58                xQueueGenericReceive
                0x9d017330                xQueueReceiveFromISR
                0x9d0174ac                xQueuePeekFromISR
                0x9d0175d8                uxQueueMessagesWaiting
                0x9d017644                uxQueueSpacesAvailable
                0x9d0176c4                uxQueueMessagesWaitingFromISR
                0x9d017720                vQueueDelete
                0x9d017b98                xQueueIsQueueEmptyFromISR
                0x9d017c78                xQueueIsQueueFullFromISR
                0x9d017cf4                vQueueWaitForMessageRestricted
 .text          0x9d017da8     0x1a9c build/default/debug/lwip-1.4.1/src/netif/etharp.o
                0x9d017ed0                etharp_tmr
                0x9d0186cc                etharp_cleanup_netif
                0x9d018784                etharp_find_addr
                0x9d018cb8                etharp_output
                0x9d018f9c                etharp_query
                0x9d0195ac                etharp_request
                0x9d019634                ethernet_input
 .text          0x9d019844     0x182c build/default/debug/lwip-1.4.1/src/core/pbuf.o
                0x9d0199b0                pbuf_alloc
                0x9d019dc0                pbuf_alloced_custom
                0x9d019f44                pbuf_realloc
                0x9d01a0f0                pbuf_header
                0x9d01a2c8                pbuf_free
                0x9d01a45c                pbuf_clen
                0x9d01a4b4                pbuf_ref
                0x9d01a51c                pbuf_cat
                0x9d01a5d4                pbuf_chain
                0x9d01a620                pbuf_dechain
                0x9d01a6d0                pbuf_copy
                0x9d01a900                pbuf_copy_partial
                0x9d01aaa8                pbuf_take
                0x9d01abf8                pbuf_coalesce
                0x9d01aca0                pbuf_get_at
                0x9d01ad70                pbuf_memcmp
                0x9d01aec8                pbuf_memfind
                0x9d01afb4                pbuf_strstr
 .text          0x9d01b070     0x14a8 build/default/debug/lwip-1.4.1/src/core/ipv4/ip_frag.o
                0x9d01b070                ip_reass_tmr
                0x9d01bacc                ip_reass
                0x9d01c09c                ip_frag
 .text          0x9d01c518     0x1304 build/default/debug/contrib/ports/microchip/netif/ETHPIC32ExtPhy.o
                0x9d01c518                EthPhyRestartNegotiation
                0x9d01c5ac                EthPhyGetHwConfigFlags
                0x9d01c61c                EthPhyInit
                0x9d01cafc                EthPhyNegotiationComplete
                0x9d01cd5c                EthPhyGetNegotiationResult
                0x9d01d0a0                EthPhyGetLinkStatus
                0x9d01d178                EthPhyReset
                0x9d01d284                EthPhyScanLinkStart
                0x9d01d2c0                EthPhyScanLinkRead
                0x9d01d32c                EthPhyScanLinkStop
 .text          0x9d01d81c      0xfb0 build/default/debug/lwip-1.4.1/src/api/api_lib.o
                0x9d01d81c                netconn_new_with_proto_and_callback
                0x9d01d8f0                netconn_delete
                0x9d01d968                netconn_getaddr
                0x9d01da68                netconn_bind
                0x9d01db2c                netconn_connect
                0x9d01dbf0                netconn_disconnect
                0x9d01dc98                netconn_listen_with_backlog
                0x9d01dd48                netconn_accept
                0x9d01e0d0                netconn_recv_tcp_pbuf
                0x9d01e140                netconn_recv
                0x9d01e2d4                netconn_recved
                0x9d01e364                netconn_sendto
                0x9d01e3fc                netconn_send
                0x9d01e4b0                netconn_write_partly
                0x9d01e710                netconn_close
                0x9d01e74c                netconn_shutdown
 .text          0x9d01e7cc      0xed8 build/default/debug/contrib/ports/microchip/netif/Microchip_eth.o
                0x9d01e7cc                MACInit
                0x9d01ee98                MACReady
                0x9d01f028                MACSetCurretPtr
                0x9d01f090                MACAddToBuffer
                0x9d01f11c                MACSendPckt
                0x9d01f1fc                _TxAckCallback
                0x9d01f2ac                _LinkReconfigure
                0x9d01f37c                __EthInterrupt
                0x9d01f4c8                _INT1Interrupt
 .text          0x9d01f6a4      0xeac build/default/debug/lwip-1.4.1/src/core/udp.o
                0x9d01f6a4                udp_init
                0x9d01f788                udp_input
                0x9d01fcac                udp_send
                0x9d01fd04                udp_sendto
                0x9d01fd8c                udp_sendto_if
                0x9d0200f0                udp_bind
                0x9d02026c                udp_connect
                0x9d020398                udp_disconnect
                0x9d0203e8                udp_recv
                0x9d02042c                udp_remove
                0x9d0204e8                udp_new
 .text          0x9d020550      0xe58 build/default/debug/contrib/ports/microchip/sys_arch.o
                0x9d020550                sys_mbox_new
                0x9d0205c4                sys_mbox_free
                0x9d02063c                sys_mbox_post
                0x9d020700                sys_mbox_trypost
                0x9d020804                sys_arch_mbox_fetch
                0x9d020aac                sys_arch_mbox_tryfetch
                0x9d020bac                sys_sem_new
                0x9d020c94                sys_sem_new_n
                0x9d020d2c                sys_arch_sem_wait
                0x9d020f88                sys_mutex_new
                0x9d021004                sys_mutex_lock
                0x9d0210bc                sys_mutex_unlock
                0x9d021170                sys_mutex_free
                0x9d0211b0                sys_sem_signal
                0x9d021264                sys_sem_free
                0x9d0212a4                sys_init
                0x9d0212c4                sys_now
                0x9d0212f4                sys_thread_new
                0x9d021390                sys_assert
 .text          0x9d0213a8      0xbf0 build/default/debug/freertos/timers.o
                0x9d0213a8                xTimerCreateTimerTask
                0x9d021444                xTimerCreate
                0x9d02152c                xTimerGenericCommand
                0x9d021634                pcTimerGetTimerName
                0x9d021f0c                xTimerIsTimerActive
                0x9d021f64                pvTimerGetTimerID
 .text          0x9d021f98      0xb80 build/default/debug/contrib/ports/microchip/ethernetif.o
                0x9d0227b0                ethernetif_init
                0x9d0229e8                CommonEthISR
                0x9d022a58                SetLinkUpCallback
                0x9d022ab8                SetLinkDownCallback

.text._vfprintf_cdnopsuxX
                0x9d022b18      0xad0
 .text._vfprintf_cdnopsuxX
                0x9d022b18      0xad0 /opt/microchip/xc32/v1.22/bin/../lib/gcc/pic32mx/4.5.2/../../../../pic32mx/lib/libc.a(doprnt_cdnopsuxX.eo)
                0x9d022b18                _vfprintf_cdnopuxX
                0x9d022b18                _vfprintf_0
                0x9d022b18                _vfprintf_s
                0x9d022b18                _vfprintf_cdnopsuxX

.text           0x9d0235e8     0x4d7c
 .text          0x9d0235e8      0x9fc build/default/debug/lwip-1.4.1/src/core/ipv4/ip.o
                0x9d0235e8                ip_route
                0x9d0236b4                ip_input
                0x9d023b30                ip_output_if
                0x9d023f3c                ip_output
 .text          0x9d023fe4      0x914 build/default/debug/lwip-1.4.1/src/core/mem.o
                0x9d024138                mem_init
                0x9d0241e0                mem_free
                0x9d0242c0                mem_trim
                0x9d0245cc                mem_malloc
                0x9d024870                mem_calloc
 .text          0x9d0248f8      0x8ec /opt/microchip/xc32/v1.22/bin/../lib/gcc/pic32mx/4.5.2/../../../../pic32mx/lib/libm.a(fp32.o)
                0x9d0248f8                fpsub
                0x9d0248f8                __subsf3
                0x9d024900                fpadd
                0x9d024900                __addsf3
                0x9d024b6c                fpmul
                0x9d024b6c                __mulsf3
                0x9d024d24                __divsf3
                0x9d024d24                fpdiv
                0x9d024f50                __floatsisf
                0x9d024f50                sitofp
                0x9d024f50                litofp
                0x9d024fac                ultofp
                0x9d024fac                uitofp
                0x9d024ff8                __fixsfsi
                0x9d024ff8                fptoli
                0x9d024ff8                fptosi
                0x9d025070                __fixunssfsi
                0x9d025070                fptoul
                0x9d025070                fptoui
                0x9d0250e4                __ltsf2
                0x9d0250e4                __eqsf2
                0x9d0250e4                __lesf2
                0x9d0250e4                __gtsf2
                0x9d0250e4                __nesf2
                0x9d0250e4                fpcmp
                0x9d0250e4                __gesf2
                0x9d025178                fabsf
                0x9d025178                fpfabs
                0x9d025188                __negsf2
                0x9d025198                fpnan
                0x9d025198                nanf
 .text          0x9d0251e4      0x8b4 build/default/debug/lwip-1.4.1/src/core/ipv4/ip_addr.o
                0x9d0251e4                ip4_addr_isbroadcast
                0x9d0252d8                ip4_addr_netmask_valid
                0x9d0253a0                ipaddr_addr
                0x9d0253f8                ipaddr_aton
                0x9d025870                ipaddr_ntoa
                0x9d0258b4                ipaddr_ntoa_r
 .text          0x9d025a98      0x850 build/default/debug/lwip-1.4.1/src/core/ipv4/inet_chksum.o
                0x9d025d14                inet_chksum_pseudo
                0x9d025f20                inet_chksum_pseudo_partial
                0x9d026174                inet_chksum
                0x9d0261c4                inet_chksum_pbuf
 .text          0x9d0262e8      0x844 build/default/debug/lwip-1.4.1/src/core/netif.o
                0x9d0262e8                netif_init
                0x9d026308                netif_add
                0x9d0263f4                netif_set_addr
                0x9d02645c                netif_remove
                0x9d026570                netif_find
                0x9d026644                netif_set_ipaddr
                0x9d0267ac                netif_set_gw
                0x9d0267fc                netif_set_netmask
                0x9d02684c                netif_set_default
                0x9d026878                netif_set_up
                0x9d026910                netif_set_down
                0x9d026990                netif_set_link_up
                0x9d026a6c                netif_set_link_down
                0x9d026aec                netif_set_link_callback
 .text          0x9d026b2c      0x82c build/default/debug/freertos/port.o
                0x9d026b2c                pxPortInitialiseStack
                0x9d026c98                vApplicationSetupTickTimerInterrupt
                0x9d026d34                vPortEndScheduler
                0x9d026d80                xPortStartScheduler
                0x9d026e14                vPortIncrementTick
                0x9d026e88                uxPortSetInterruptMaskFromISR
                0x9d026edc                vPortClearInterruptMaskFromISR
                0x9d026f0c                vApplicationMallocFailedHook
                0x9d026f78                vApplicationStackOverflowHook
                0x9d026fec                vHardwareUseMultiVectoredInterrupts
                0x9d0271c4                vHardwareConfigurePerformance
                0x9d027254                vApplicationSetupHardware
                0x9d0272d0                vAssertCalled
 .text          0x9d027358      0x81c build/default/debug/lwip-1.4.1/src/api/tcpip.o
                0x9d027578                tcpip_input
                0x9d027644                tcpip_callback_with_block
                0x9d02773c                tcpip_timeout
                0x9d0277f4                tcpip_untimeout
                0x9d02789c                tcpip_apimsg
                0x9d027924                tcpip_callbackmsg_new
                0x9d0279a4                tcpip_callbackmsg_delete
                0x9d0279e0                tcpip_trycallback
                0x9d027a34                tcpip_init
                0x9d027aec                pbuf_free_callback
                0x9d027b30                mem_free_callback
 .text          0x9d027b74      0x7f0 build/default/debug/freertos/croutine.o
                0x9d027b74                xCoRoutineCreate
                0x9d027cec                vCoRoutineAddToDelayedList
                0x9d027dc4                prvCheckPendingReadyList
                0x9d027f04                prvCheckDelayedList
                0x9d0280f0                vCoRoutineSchedule
                0x9d028208                prvInitialiseCoRoutineLists
                0x9d0282c4                xCoRoutineRemoveFromEventList

.rodata         0x9d028364      0x7d4
 .rodata        0x9d028364      0x7d4 /opt/microchip/xc32/v1.22/bin/../lib/gcc/pic32mx/4.5.2/../../../../pic32mx/lib/libmchp_peripheral_32MX795F512L.a(int_tbl_lib.o)
                0x9d028364                __IntSrcTbl
                0x9d028880                __IntVectorTbl

.text           0x9d028b38      0xd8c
 .text          0x9d028b38      0x6c8 build/default/debug/lwip-1.4.1/src/core/timers.o
                0x9d028ba8                tcp_timer_needed
                0x9d028d44                sys_timeouts_init
                0x9d028dcc                sys_timeout
                0x9d028f88                sys_untimeout
                0x9d0290a8                sys_timeouts_mbox_fetch
 .text          0x9d029200      0x6c4 build/default/debug/lwip-1.4.1/src/core/ipv4/icmp.o
                0x9d029200                icmp_input
                0x9d02967c                icmp_dest_unreach
                0x9d0296c8                icmp_time_exceeded

.rodata         0x9d0298c4      0x5a0
 .rodata        0x9d0298c4      0x5a0 build/default/debug/contrib/ports/microchip/ethernetif.o

.text           0x9d029e64     0x1e30
 .text          0x9d029e64      0x54c build/default/debug/lwip-1.4.1/src/api/netbuf.o
                0x9d029e64                netbuf_new
                0x9d029ed8                netbuf_delete
                0x9d029f5c                netbuf_alloc
                0x9d02a028                netbuf_free
                0x9d02a09c                netbuf_ref
                0x9d02a198                netbuf_chain
                0x9d02a220                netbuf_data
                0x9d02a2dc                netbuf_next
                0x9d02a370                netbuf_first
 .text          0x9d02a3b0      0x490 build/default/debug/src/ip_lwip.o
                0x9d02a3b0                InitIP
                0x9d02a440                print_ip
                0x9d02a4cc                print_ip_settings
                0x9d02a53c                ip_thread
 .text          0x9d02a840      0x464 /opt/microchip/xc32/v1.22/bin/../lib/gcc/pic32mx/4.5.2/libgcc.a(_umoddi3.o)
                0x9d02a840                __umoddi3
 .text          0x9d02aca4      0x454 build/default/debug/freertos/port_asm.o
                0x9d02aca4                vPortTickInterruptHandler
                0x9d02ae50                vPortStartFirstTask
                0x9d02af18                vPortYieldISR
 .text          0x9d02b0f8      0x448 /opt/microchip/xc32/v1.22/bin/../lib/gcc/pic32mx/4.5.2/libgcc.a(_udivdi3.o)
                0x9d02b0f8                __udivdi3
 .text          0x9d02b540      0x3dc /opt/microchip/xc32/v1.22/bin/../lib/gcc/pic32mx/4.5.2/../../../../pic32mx/lib/libm.a(fpmod32.o)
                0x9d02b540                fpfmod
                0x9d02b540                fmodf
                0x9d02b684                fpfrexp
                0x9d02b684                frexpf
                0x9d02b708                __mchp_ldexpf
                0x9d02b708                fpldexp
                0x9d02b84c                fpmodf
                0x9d02b84c                modff
 .text          0x9d02b91c      0x378 build/default/debug/src/echo.o
                0x9d02b91c                print_echo_app_header
                0x9d02b96c                process_echo_request
                0x9d02bb4c                echo_application_thread

.dinit          0x9d02bc94      0x350
 .dinit         0x9d02bc94      0x350 data_init

.text           0x9d02bfe4      0x2b8
 .text          0x9d02bfe4      0x2b8 build/default/debug/freertos/list.o
                0x9d02bfe4                vListInitialise
                0x9d02c058                vListInitialiseItem
                0x9d02c084                vListInsertEnd
                0x9d02c110                vListInsert
                0x9d02c1fc                uxListRemove

.text.scale     0x9d02c29c      0x2a0
 .text.scale    0x9d02c29c      0x2a0 /opt/microchip/xc32/v1.22/bin/../lib/gcc/pic32mx/4.5.2/../../../../pic32mx/lib/libc.a(doprnt.o)

.rodata         0x9d02c53c      0x29c
 .rodata        0x9d02c53c      0x29c build/default/debug/contrib/ports/microchip/netif/Microchip_eth.o

.text           0x9d02c7d8      0x290
 .text          0x9d02c7d8      0x290 build/default/debug/lwip-1.4.1/src/core/memp.o
                0x9d02c7d8                memp_init
                0x9d02c918                memp_malloc
                0x9d02c9c4                memp_free

.text.malloc    0x9d02ca68      0x288
 .text.malloc   0x9d02ca68      0x288 /opt/microchip/xc32/v1.22/bin/../lib/gcc/pic32mx/4.5.2/../../../../pic32mx/lib/libc.a(malloc.o)
                0x9d02ca68                malloc

.text.EthRxBuffersAppend
                0x9d02ccf0      0x260
 .text.EthRxBuffersAppend
                0x9d02ccf0      0x260 /opt/microchip/xc32/v1.22/bin/../lib/gcc/pic32mx/4.5.2/../../../../pic32mx/lib/libmchp_peripheral_32MX795F512L.a(eth_rx_buffers_append_lib.o)
                0x9d02ccf0                EthRxBuffersAppend

.text.__floatdisf
                0x9d02cf50      0x220
 .text.__floatdisf
                0x9d02cf50      0x220 /opt/microchip/xc32/v1.22/bin/../lib/gcc/pic32mx/4.5.2/../../../../pic32mx/lib/libe.a(_floatdisf.o)
                0x9d02cf50                __floatdisf

.text._EthAckPacket
                0x9d02d170      0x1dc
 .text._EthAckPacket
                0x9d02d170      0x1dc /opt/microchip/xc32/v1.22/bin/../lib/gcc/pic32mx/4.5.2/../../../../pic32mx/lib/libmchp_peripheral_32MX795F512L.a(eth_ack_packet_lib.o)
                0x9d02d170                _EthAckPacket

.text           0x9d02d34c      0x1c4
 .text          0x9d02d34c      0x1c4 build/default/debug/contrib/ports/microchip/netif/ETHPIC32ExtPhyDP83848.o
                0x9d02d34c                EthPhyConfigureMII
                0x9d02d3f8                EthPhyConfigureMdix
                0x9d02d4c4                EthPhyMIIMAddress
                0x9d02d4e8                EthPhyMIIMClock

.text.fround    0x9d02d510      0x1a4
 .text.fround   0x9d02d510      0x1a4 /opt/microchip/xc32/v1.22/bin/../lib/gcc/pic32mx/4.5.2/../../../../pic32mx/lib/libc.a(doprnt.o)

.text.realloc   0x9d02d6b4      0x194
 .text.realloc  0x9d02d6b4      0x194 /opt/microchip/xc32/v1.22/bin/../lib/gcc/pic32mx/4.5.2/../../../../pic32mx/lib/libc.a(malloc.o)
                0x9d02d6b4                realloc

.text._sbrk_init
                0x9d02d848      0x194
 .text._sbrk_init
                0x9d02d848      0x194 /opt/microchip/xc32/v1.22/bin/../lib/gcc/pic32mx/4.5.2/../../../../pic32mx/lib/libpic32.a(sbrk.o)
                0x9d02d848                _sbrk_init

.text._EthRxAckBuffer
                0x9d02d9dc      0x184
 .text._EthRxAckBuffer
                0x9d02d9dc      0x184 /opt/microchip/xc32/v1.22/bin/../lib/gcc/pic32mx/4.5.2/../../../../pic32mx/lib/libmchp_peripheral_32MX795F512L.a(eth_ack_packet_lib.o)

.text.EthRxGetPacket
                0x9d02db60      0x180
 .text.EthRxGetPacket
                0x9d02db60      0x180 /opt/microchip/xc32/v1.22/bin/../lib/gcc/pic32mx/4.5.2/../../../../pic32mx/lib/libmchp_peripheral_32MX795F512L.a(eth_rx_get_packet_lib.o)
                0x9d02db60                EthRxGetPacket

.rodata         0x9d02dce0      0x168
 .rodata        0x9d02dce0      0x168 build/default/debug/src/ip_lwip.o

.text           0x9d02de48      0x2d0
 .text          0x9d02de48      0x168 /opt/microchip/xc32/v1.22/bin/../lib/gcc/pic32mx/4.5.2/../../../../pic32mx/lib/libpic32.a(memcpy.o)
                0x9d02de48                memcpy
 .text          0x9d02dfb0      0x168 /opt/microchip/xc32/v1.22/bin/../lib/gcc/pic32mx/4.5.2/../../../../pic32mx/lib/libpic32.a(strlen.o)
                0x9d02dfb0                strlen

.text.fputc     0x9d02e118      0x15c
 .text.fputc    0x9d02e118      0x15c /opt/microchip/xc32/v1.22/bin/../lib/gcc/pic32mx/4.5.2/../../../../pic32mx/lib/libc.a(_fputc_simple.o)
                0x9d02e118                fputc

.text           0x9d02e274      0x14c
 .text          0x9d02e274      0x14c build/default/debug/src/main.o
                0x9d02e274                main
                0x9d02e330                prvLed

.text.EthTxSendPacket
                0x9d02e3c0      0x14c
 .text.EthTxSendPacket
                0x9d02e3c0      0x14c /opt/microchip/xc32/v1.22/bin/../lib/gcc/pic32mx/4.5.2/../../../../pic32mx/lib/libmchp_peripheral_32MX795F512L.a(eth_tx_packet_lib.o)
                0x9d02e3c0                EthTxSendPacket

.text._EthAppendBusyList
                0x9d02e50c      0x144
 .text._EthAppendBusyList
                0x9d02e50c      0x144 /opt/microchip/xc32/v1.22/bin/../lib/gcc/pic32mx/4.5.2/../../../../pic32mx/lib/libmchp_peripheral_32MX795F512L.a(_eth_append_busy_list_lib.o)
                0x9d02e50c                _EthAppendBusyList

.text.EthDescriptorsPoolAdd
                0x9d02e650      0x134
 .text.EthDescriptorsPoolAdd
                0x9d02e650      0x134 /opt/microchip/xc32/v1.22/bin/../lib/gcc/pic32mx/4.5.2/../../../../pic32mx/lib/libmchp_peripheral_32MX795F512L.a(eth_descriptors_add_lib.o)
                0x9d02e650                EthDescriptorsPoolAdd

.text.EthDescriptorsAdd
                0x9d02e784      0x12c
 .text.EthDescriptorsAdd
                0x9d02e784      0x12c /opt/microchip/xc32/v1.22/bin/../lib/gcc/pic32mx/4.5.2/../../../../pic32mx/lib/libmchp_peripheral_32MX795F512L.a(eth_descriptors_add_lib.o)
                0x9d02e784                EthDescriptorsAdd

.text._flsbuf   0x9d02e8b0      0x12c
 .text._flsbuf  0x9d02e8b0      0x12c /opt/microchip/xc32/v1.22/bin/../lib/gcc/pic32mx/4.5.2/../../../../pic32mx/lib/libc.a(_flsbuf_simple.o)
                0x9d02e8b0                _flsbuf

.text           0x9d02e9dc      0x124
 .text          0x9d02e9dc      0x124 build/default/debug/lwip-1.4.1/src/core/def.o
                0x9d02e9dc                lwip_htons
                0x9d02ea2c                lwip_ntohs
                0x9d02ea6c                lwip_htonl
                0x9d02eac8                lwip_ntohl

.rodata         0x9d02eb00      0x104
 .rodata        0x9d02eb00      0x104 /opt/microchip/xc32/v1.22/bin/../lib/gcc/pic32mx/4.5.2/../../../../pic32mx/lib/libc.a(ctype.o)
                0x9d02eb00                _ctype

.text.setvbuf   0x9d02ec04       0xfc
 .text.setvbuf  0x9d02ec04       0xfc /opt/microchip/xc32/v1.22/bin/../lib/gcc/pic32mx/4.5.2/../../../../pic32mx/lib/libc.a(setbuf.o)
                0x9d02ec04                setvbuf

.rodata         0x9d02ed00       0xf8
 .rodata        0x9d02ed00       0xf8 build/default/debug/src/echo.o

.text           0x9d02edf8      0x1e8
 .text          0x9d02edf8       0xf4 build/default/debug/contrib/ports/microchip/sys_arch_raw.o
                0x9d02edf8                sys_arch_protect
                0x9d02ee64                sys_arch_unprotect
                0x9d02eec0                InsideISR
 .text          0x9d02eeec       0xf4 build/default/debug/lwip-1.4.1/src/core/init.o
                0x9d02eeec                tcpip_init_done
                0x9d02ef1c                lwip_sock_init
                0x9d02ef70                lwip_init

.rodata         0x9d02efe0       0xe8
 .rodata        0x9d02efe0       0xe8 /opt/microchip/xc32/v1.22/bin/../lib/gcc/pic32mx/4.5.2/../../../../pic32mx/lib/libc.a(doprnt.o)

.text           0x9d02f0c8       0xd4
 .text          0x9d02f0c8       0xd4 /opt/microchip/xc32/v1.22/bin/../lib/gcc/pic32mx/4.5.2/libgcc.a(_floatundisf.o)
                0x9d02f0c8                __floatundisf

.text.general_exception
                0x9d02f19c       0xd0
 .text.general_exception
                0x9d02f19c       0xd0 /opt/microchip/xc32/v1.22/bin/../lib/gcc/pic32mx/4.5.2/../../../../pic32mx/lib/libpic32.a(general-exception.o)
                0x9d02f19c                _general_exception_context

.rodata         0x9d02f270      0x19c
 .rodata        0x9d02f270       0xd0 /opt/microchip/xc32/v1.22/bin/../lib/gcc/pic32mx/4.5.2/../../../../pic32mx/lib/libc.a(doprnt_cdnopsuxX.eo)
 .rodata        0x9d02f340       0xcc build/default/debug/lwip-1.4.1/src/core/tcp.o
                0x9d02f3b8                tcp_state_str
                0x9d02f3e4                tcp_backoff
                0x9d02f3f4                tcp_persist_backoff
                0x9d02f3fc                tcp_pcb_lists

.text._sbrk     0x9d02f40c       0xc4
 .text._sbrk    0x9d02f40c       0xc4 /opt/microchip/xc32/v1.22/bin/../lib/gcc/pic32mx/4.5.2/../../../../pic32mx/lib/libpic32.a(sbrk.o)
                0x9d02f40c                _sbrk

.text.EthTxSendBuffer
                0x9d02f4d0       0xc0
 .text.EthTxSendBuffer
                0x9d02f4d0       0xc0 /opt/microchip/xc32/v1.22/bin/../lib/gcc/pic32mx/4.5.2/../../../../pic32mx/lib/libmchp_peripheral_32MX795F512L.a(eth_tx_packet_lib.o)
                0x9d02f4d0                EthTxSendBuffer

.text           0x9d02f590       0xb8
 .text          0x9d02f590       0xb8 build/default/debug/freertos/heap/heap_3.o
                0x9d02f590                pvPortMalloc
                0x9d02f5f4                vPortFree

.text.StarterKitIO
                0x9d02f648       0xb8
 .text.StarterKitIO
                0x9d02f648       0xb8 /opt/microchip/xc32/v1.22/bin/../lib/gcc/pic32mx/4.5.2/../../../../pic32mx/lib/libdebug.a(db_utils.o)
                0x9d02f648                _pic32mxsk_init
                0x9d02f680                db_puts
                0x9d02f690                db_gets
                0x9d02f6a0                _mon_write
                0x9d02f6b8                _mon_putc
                0x9d02f6dc                _mon_getc

.text.EthInit   0x9d02f700       0xb4
 .text.EthInit  0x9d02f700       0xb4 /opt/microchip/xc32/v1.22/bin/../lib/gcc/pic32mx/4.5.2/../../../../pic32mx/lib/libmchp_peripheral_32MX795F512L.a(eth_init_lib.o)
                0x9d02f700                EthInit

.text.EthMACOpen
                0x9d02f7b4       0xb4
 .text.EthMACOpen
                0x9d02f7b4       0xb4 /opt/microchip/xc32/v1.22/bin/../lib/gcc/pic32mx/4.5.2/../../../../pic32mx/lib/libmchp_peripheral_32MX795F512L.a(eth_mac_open_lib.o)
                0x9d02f7b4                EthMACOpen

.rodata         0x9d02f868       0xac
 .rodata        0x9d02f868       0xac build/default/debug/freertos/port.o
                0x9d02f868                xISRStackTop

.text._EthTxSchedBuffer
                0x9d02f914       0xac
 .text._EthTxSchedBuffer
                0x9d02f914       0xac /opt/microchip/xc32/v1.22/bin/../lib/gcc/pic32mx/4.5.2/../../../../pic32mx/lib/libmchp_peripheral_32MX795F512L.a(eth_tx_packet_lib.o)

.text           0x9d02f9c0      0x140
 .text          0x9d02f9c0       0xa8 /opt/microchip/xc32/v1.22/bin/../lib/gcc/pic32mx/4.5.2/../../../../pic32mx/lib/libpic32.a(memset.o)
                0x9d02f9c0                memset
 .text          0x9d02fa68       0x98 /opt/microchip/xc32/v1.22/bin/../lib/gcc/pic32mx/4.5.2/../../../../pic32mx/lib/libpic32.a(memcmp.o)
                0x9d02fa68                memcmp

.text.rand      0x9d02fb00       0x98
 .text.rand     0x9d02fb00       0x98 /opt/microchip/xc32/v1.22/bin/../lib/gcc/pic32mx/4.5.2/../../../../pic32mx/lib/libc.a(rand.o)
                0x9d02fb00                rand

.text.write     0x9d02fb98       0x94
 .text.write    0x9d02fb98       0x94 /opt/microchip/xc32/v1.22/bin/../lib/gcc/pic32mx/4.5.2/../../../../pic32mx/lib/libpic32.a(write.o)
                0x9d02fb98                write

.text._EthTxSchedList
                0x9d02fc2c       0x8c
 .text._EthTxSchedList
                0x9d02fc2c       0x8c /opt/microchip/xc32/v1.22/bin/../lib/gcc/pic32mx/4.5.2/../../../../pic32mx/lib/libmchp_peripheral_32MX795F512L.a(eth_tx_packet_lib.o)

.text           0x9d02fcb8       0x80
 .text          0x9d02fcb8       0x80 build/default/debug/lwip-1.4.1/src/core/sys.o
                0x9d02fcb8                sys_msleep

.text.EthMIIMConfig
                0x9d02fd38       0x80
 .text.EthMIIMConfig
                0x9d02fd38       0x80 /opt/microchip/xc32/v1.22/bin/../lib/gcc/pic32mx/4.5.2/../../../../pic32mx/lib/libmchp_peripheral_32MX795F512L.a(eth_miim_access.o)
                0x9d02fd38                EthMIIMConfig

.text.fputs     0x9d02fdb8       0x78
 .text.fputs    0x9d02fdb8       0x78 /opt/microchip/xc32/v1.22/bin/../lib/gcc/pic32mx/4.5.2/../../../../pic32mx/lib/libc.a(puts.o)
                0x9d02fdb8                fputs

.text.strncmp   0x9d02fe30       0x78
 .text.strncmp  0x9d02fe30       0x78 /opt/microchip/xc32/v1.22/bin/../lib/gcc/pic32mx/4.5.2/../../../../pic32mx/lib/libc.a(strncmp.o)
                0x9d02fe30                strncmp

.text.EthTxGetBufferStatus
                0x9d02fea8       0x70
 .text.EthTxGetBufferStatus
                0x9d02fea8       0x70 /opt/microchip/xc32/v1.22/bin/../lib/gcc/pic32mx/4.5.2/../../../../pic32mx/lib/libmchp_peripheral_32MX795F512L.a(eth_tx_packet_lib.o)
                0x9d02fea8                EthTxGetBufferStatus

.text.EthRxFiltersPMSet
                0x9d02ff18       0x6c
 .text.EthRxFiltersPMSet
                0x9d02ff18       0x6c /opt/microchip/xc32/v1.22/bin/../lib/gcc/pic32mx/4.5.2/../../../../pic32mx/lib/libmchp_peripheral_32MX795F512L.a(eth_rx_filters_lib.o)
                0x9d02ff18                EthRxFiltersPMSet

.rodata         0x9d02ff84      0x130
 .rodata        0x9d02ff84       0x68 build/default/debug/src/main.o
 .rodata        0x9d02ffec       0x68 /opt/microchip/xc32/v1.22/bin/../lib/gcc/pic32mx/4.5.2/../../../../pic32mx/lib/libc.a(powersf.o)
                0x9d02ffec                _powers_f
                0x9d030020                _npowers_f
 .rodata        0x9d030054       0x60 build/default/debug/contrib/ports/microchip/sys_arch.o

.text.calloc    0x9d0300b4       0x5c
 .text.calloc   0x9d0300b4       0x5c /opt/microchip/xc32/v1.22/bin/../lib/gcc/pic32mx/4.5.2/../../../../pic32mx/lib/libc.a(calloc.o)
                0x9d0300b4                calloc

.rodata         0x9d030110       0x54
 .rodata        0x9d030110       0x54 /opt/microchip/xc32/v1.22/bin/../lib/gcc/pic32mx/4.5.2/../../../../pic32mx/lib/libmchp_peripheral_32MX795F512L.a(_ports_tbl_libp.o)
                0x9d030110                PortRegTbl

.text._bufallo  0x9d030164       0x54
 .text._bufallo
                0x9d030164       0x54 /opt/microchip/xc32/v1.22/bin/../lib/gcc/pic32mx/4.5.2/../../../../pic32mx/lib/libc.a(buf.o)
                0x9d030164                _bufallo

.text.INTEnable
                0x9d0301b8       0x50
 .text.INTEnable
                0x9d0301b8       0x50 /opt/microchip/xc32/v1.22/bin/../lib/gcc/pic32mx/4.5.2/../../../../pic32mx/lib/libmchp_peripheral_32MX795F512L.a(int_tbl_lib.o)
                0x9d0301b8                INTEnable

.text.sbrk      0x9d030208       0x50
 .text.sbrk     0x9d030208       0x50 /opt/microchip/xc32/v1.22/bin/../lib/gcc/pic32mx/4.5.2/../../../../pic32mx/lib/libpic32.a(sbrk.o)
                0x9d030208                sbrk

.text           0x9d030258       0x4c
 .text          0x9d030258       0x4c /opt/microchip/xc32/v1.22/bin/../lib/gcc/pic32mx/4.5.2/libgcc.a(floatunsisf.o)
                0x9d030258                __floatunsisf

.text.EthMACSetAddress
                0x9d0302a4       0x48
 .text.EthMACSetAddress
                0x9d0302a4       0x48 /opt/microchip/xc32/v1.22/bin/../lib/gcc/pic32mx/4.5.2/../../../../pic32mx/lib/libmchp_peripheral_32MX795F512L.a(eth_mac_set_address_max_lib.o)
                0x9d0302a4                EthMACSetAddress

.text.EthMACGetAddress
                0x9d0302ec       0x44
 .text.EthMACGetAddress
                0x9d0302ec       0x44 /opt/microchip/xc32/v1.22/bin/../lib/gcc/pic32mx/4.5.2/../../../../pic32mx/lib/libmchp_peripheral_32MX795F512L.a(eth_mac_set_address_max_lib.o)
                0x9d0302ec                EthMACGetAddress

.text.puts      0x9d030330       0x44
 .text.puts     0x9d030330       0x44 /opt/microchip/xc32/v1.22/bin/../lib/gcc/pic32mx/4.5.2/../../../../pic32mx/lib/libc.a(puts.o)
                0x9d030330                puts

.rodata         0x9d030374       0x40
 .rodata        0x9d030374       0x40 build/default/debug/lwip-1.4.1/src/api/sockets.o

.text.EthMIIMReadStart
                0x9d0303b4       0x40
 .text.EthMIIMReadStart
                0x9d0303b4       0x40 /opt/microchip/xc32/v1.22/bin/../lib/gcc/pic32mx/4.5.2/../../../../pic32mx/lib/libmchp_peripheral_32MX795F512L.a(eth_miim_access.o)
                0x9d0303b4                EthMIIMReadStart

.text._printf_cdnopsuxX
                0x9d0303f4       0x40
 .text._printf_cdnopsuxX
                0x9d0303f4       0x40 /opt/microchip/xc32/v1.22/bin/../lib/gcc/pic32mx/4.5.2/../../../../pic32mx/lib/libc.a(printf_cdnopsuxX.eo)
                0x9d0303f4                _printf_s
                0x9d0303f4                _printf_cdnopsuxX
                0x9d0303f4                _printf_cdnopuxX
                0x9d0303f4                _printf_0

.text.printf    0x9d030434       0x40
 .text.printf   0x9d030434       0x40 /opt/microchip/xc32/v1.22/bin/../lib/gcc/pic32mx/4.5.2/../../../../pic32mx/lib/libc.a(printf.o)
                0x9d030434                printf

.text.EthRxGetBuffer
                0x9d030474       0x3c
 .text.EthRxGetBuffer
                0x9d030474       0x3c /opt/microchip/xc32/v1.22/bin/../lib/gcc/pic32mx/4.5.2/../../../../pic32mx/lib/libmchp_peripheral_32MX795F512L.a(eth_rx_get_packet_lib.o)
                0x9d030474                EthRxGetBuffer

.text.PORTSetPinsDigitalIn
                0x9d0304b0       0x3c
 .text.PORTSetPinsDigitalIn
                0x9d0304b0       0x3c /opt/microchip/xc32/v1.22/bin/../lib/gcc/pic32mx/4.5.2/../../../../pic32mx/lib/libmchp_peripheral_32MX795F512L.a(port_set_pins_digital_in_lib.o)
                0x9d0304b0                PORTSetPinsDigitalIn

.text.PORTSetPinsDigitalOut
                0x9d0304ec       0x3c
 .text.PORTSetPinsDigitalOut
                0x9d0304ec       0x3c /opt/microchip/xc32/v1.22/bin/../lib/gcc/pic32mx/4.5.2/../../../../pic32mx/lib/libmchp_peripheral_32MX795F512L.a(port_set_pins_digital_out_lib.o)
                0x9d0304ec                PORTSetPinsDigitalOut

.rodata         0x9d030528       0x38
 .rodata        0x9d030528       0x38 build/default/debug/lwip-1.4.1/src/core/memp.o

.text._EthFindPacket
                0x9d030560       0x38
 .text._EthFindPacket
                0x9d030560       0x38 /opt/microchip/xc32/v1.22/bin/../lib/gcc/pic32mx/4.5.2/../../../../pic32mx/lib/libmchp_peripheral_32MX795F512L.a(eth_tx_packet_lib.o)
                0x9d030560                _EthFindPacket

.text.EthMIIMWriteStart
                0x9d030598       0x38
 .text.EthMIIMWriteStart
                0x9d030598       0x38 /opt/microchip/xc32/v1.22/bin/../lib/gcc/pic32mx/4.5.2/../../../../pic32mx/lib/libmchp_peripheral_32MX795F512L.a(eth_miim_access.o)
                0x9d030598                EthMIIMWriteStart

.text.INTSetVectorPriority
                0x9d0305d0       0x38
 .text.INTSetVectorPriority
                0x9d0305d0       0x38 /opt/microchip/xc32/v1.22/bin/../lib/gcc/pic32mx/4.5.2/../../../../pic32mx/lib/libmchp_peripheral_32MX795F512L.a(int_tbl_lib.o)
                0x9d0305d0                INTSetVectorPriority

.text.INTSetVectorSubPriority
                0x9d030608       0x38
 .text.INTSetVectorSubPriority
                0x9d030608       0x38 /opt/microchip/xc32/v1.22/bin/../lib/gcc/pic32mx/4.5.2/../../../../pic32mx/lib/libmchp_peripheral_32MX795F512L.a(int_tbl_lib.o)
                0x9d030608                INTSetVectorSubPriority

.text           0x9d030640       0x34
 .text          0x9d030640       0x34 /opt/microchip/xc32/v1.22/bin/../lib/gcc/pic32mx/4.5.2/../../../../pic32mx/lib/crt0.o
                0x9d03066c                __crt0_exit

.text.EthMIIMScanStart
                0x9d030674       0x34
 .text.EthMIIMScanStart
                0x9d030674       0x34 /opt/microchip/xc32/v1.22/bin/../lib/gcc/pic32mx/4.5.2/../../../../pic32mx/lib/libmchp_peripheral_32MX795F512L.a(eth_miim_access.o)
                0x9d030674                EthMIIMScanStart

.text.EthTxAcknowledgeBuffer
                0x9d0306a8       0x30
 .text.EthTxAcknowledgeBuffer
                0x9d0306a8       0x30 /opt/microchip/xc32/v1.22/bin/../lib/gcc/pic32mx/4.5.2/../../../../pic32mx/lib/libmchp_peripheral_32MX795F512L.a(eth_ack_packet_lib.o)
                0x9d0306a8                EthTxAcknowledgeBuffer

.text.EthTxAckBuffer
                0x9d0306d8       0x30
 .text.EthTxAckBuffer
                0x9d0306d8       0x30 /opt/microchip/xc32/v1.22/bin/../lib/gcc/pic32mx/4.5.2/../../../../pic32mx/lib/libmchp_peripheral_32MX795F512L.a(eth_ack_packet_lib.o)
                0x9d0306d8                EthTxAckBuffer

.text.EthRxSetBufferSize
                0x9d030708       0x30
 .text.EthRxSetBufferSize
                0x9d030708       0x30 /opt/microchip/xc32/v1.22/bin/../lib/gcc/pic32mx/4.5.2/../../../../pic32mx/lib/libmchp_peripheral_32MX795F512L.a(eth_rx_set_buffer_size_lib.o)
                0x9d030708                EthRxSetBufferSize

.text.free      0x9d030738       0x30
 .text.free     0x9d030738       0x30 /opt/microchip/xc32/v1.22/bin/../lib/gcc/pic32mx/4.5.2/../../../../pic32mx/lib/libc.a(malloc.o)
                0x9d030738                free

.text.INTGetVectorPriority
                0x9d030768       0x2c
 .text.INTGetVectorPriority
                0x9d030768       0x2c /opt/microchip/xc32/v1.22/bin/../lib/gcc/pic32mx/4.5.2/../../../../pic32mx/lib/libmchp_peripheral_32MX795F512L.a(int_tbl_lib.o)
                0x9d030768                INTGetVectorPriority

.text.INTGetVectorSubPriority
                0x9d030794       0x2c
 .text.INTGetVectorSubPriority
                0x9d030794       0x2c /opt/microchip/xc32/v1.22/bin/../lib/gcc/pic32mx/4.5.2/../../../../pic32mx/lib/libmchp_peripheral_32MX795F512L.a(int_tbl_lib.o)
                0x9d030794                INTGetVectorSubPriority

.text._stub_sbd_memlayout
                0x9d0307c0       0x2c
 .text._stub_sbd_memlayout
                0x9d0307c0       0x2c /opt/microchip/xc32/v1.22/bin/../lib/gcc/pic32mx/4.5.2/../../../../pic32mx/lib/libpic32.a(sbrk.o)
                0x9d0307c0                _stub_sbd_memlayout
                0x9d0307c0                _sbd_memlayout

.text.EthMIIMReadResult
                0x9d0307ec       0x28
 .text.EthMIIMReadResult
                0x9d0307ec       0x28 /opt/microchip/xc32/v1.22/bin/../lib/gcc/pic32mx/4.5.2/../../../../pic32mx/lib/libmchp_peripheral_32MX795F512L.a(eth_miim_access.o)
                0x9d0307ec                EthMIIMReadResult

.text.INTClearFlag
                0x9d030814       0x28
 .text.INTClearFlag
                0x9d030814       0x28 /opt/microchip/xc32/v1.22/bin/../lib/gcc/pic32mx/4.5.2/../../../../pic32mx/lib/libmchp_peripheral_32MX795F512L.a(int_tbl_lib.o)
                0x9d030814                INTClearFlag

.text.INTSetFlag
                0x9d03083c       0x28
 .text.INTSetFlag
                0x9d03083c       0x28 /opt/microchip/xc32/v1.22/bin/../lib/gcc/pic32mx/4.5.2/../../../../pic32mx/lib/libmchp_peripheral_32MX795F512L.a(int_tbl_lib.o)
                0x9d03083c                INTSetFlag

.text.INTGetFlag
                0x9d030864       0x28
 .text.INTGetFlag
                0x9d030864       0x28 /opt/microchip/xc32/v1.22/bin/../lib/gcc/pic32mx/4.5.2/../../../../pic32mx/lib/libmchp_peripheral_32MX795F512L.a(int_tbl_lib.o)
                0x9d030864                INTGetFlag

.text.INTGetEnable
                0x9d03088c       0x28
 .text.INTGetEnable
                0x9d03088c       0x28 /opt/microchip/xc32/v1.22/bin/../lib/gcc/pic32mx/4.5.2/../../../../pic32mx/lib/libmchp_peripheral_32MX795F512L.a(int_tbl_lib.o)
                0x9d03088c                INTGetEnable

.text.EthMIIMScanResult
                0x9d0308b4       0x20
 .text.EthMIIMScanResult
                0x9d0308b4       0x20 /opt/microchip/xc32/v1.22/bin/../lib/gcc/pic32mx/4.5.2/../../../../pic32mx/lib/libmchp_peripheral_32MX795F512L.a(eth_miim_access.o)
                0x9d0308b4                EthMIIMScanResult

.rodata         0x9d0308d4       0x38
 .rodata        0x9d0308d4       0x1c build/default/debug/freertos/timers.o
 .rodata        0x9d0308f0       0x1c build/default/debug/freertos/tasks.o

.text.EthRxAcknowledgeBuffer
                0x9d03090c       0x1c
 .text.EthRxAcknowledgeBuffer
                0x9d03090c       0x1c /opt/microchip/xc32/v1.22/bin/../lib/gcc/pic32mx/4.5.2/../../../../pic32mx/lib/libmchp_peripheral_32MX795F512L.a(eth_ack_packet_lib.o)
                0x9d03090c                EthRxAcknowledgeBuffer

.text.EthRxAckBuffer
                0x9d030928       0x1c
 .text.EthRxAckBuffer
                0x9d030928       0x1c /opt/microchip/xc32/v1.22/bin/../lib/gcc/pic32mx/4.5.2/../../../../pic32mx/lib/libmchp_peripheral_32MX795F512L.a(eth_ack_packet_lib.o)
                0x9d030928                EthRxAckBuffer

.text.srand     0x9d030944       0x1c
 .text.srand    0x9d030944       0x1c /opt/microchip/xc32/v1.22/bin/../lib/gcc/pic32mx/4.5.2/../../../../pic32mx/lib/libc.a(rand.o)
                0x9d030944                srand

.text.setbuf    0x9d030960       0x1c
 .text.setbuf   0x9d030960       0x1c /opt/microchip/xc32/v1.22/bin/../lib/gcc/pic32mx/4.5.2/../../../../pic32mx/lib/libc.a(setbuf.o)
                0x9d030960                setbuf

.text.EthRxFiltersHTSet
                0x9d03097c       0x18
 .text.EthRxFiltersHTSet
                0x9d03097c       0x18 /opt/microchip/xc32/v1.22/bin/../lib/gcc/pic32mx/4.5.2/../../../../pic32mx/lib/libmchp_peripheral_32MX795F512L.a(eth_rx_filters_lib.o)
                0x9d03097c                EthRxFiltersHTSet

.text           0x9d030994       0x18
 .text          0x9d030994       0x18 /opt/microchip/xc32/v1.22/bin/../lib/gcc/pic32mx/4.5.2/../../../../pic32mx/lib/libpic32.a(default-nmi-handler.o)
                0x9d030994                _nmi_handler

.rodata         0x9d0309ac       0x14
 .rodata        0x9d0309ac       0x14 build/default/debug/freertos/queue.o

.text.EthMACSetMaxFrame
                0x9d0309c0       0x14
 .text.EthMACSetMaxFrame
                0x9d0309c0       0x14 /opt/microchip/xc32/v1.22/bin/../lib/gcc/pic32mx/4.5.2/../../../../pic32mx/lib/libmchp_peripheral_32MX795F512L.a(eth_mac_set_address_max_lib.o)
                0x9d0309c0                EthMACSetMaxFrame

.text.EthRxFiltersPMClr
                0x9d0309d4       0x14
 .text.EthRxFiltersPMClr
                0x9d0309d4       0x14 /opt/microchip/xc32/v1.22/bin/../lib/gcc/pic32mx/4.5.2/../../../../pic32mx/lib/libmchp_peripheral_32MX795F512L.a(eth_rx_filters_lib.o)
                0x9d0309d4                EthRxFiltersPMClr

.text._buffree  0x9d0309e8       0x14
 .text._buffree
                0x9d0309e8       0x14 /opt/microchip/xc32/v1.22/bin/../lib/gcc/pic32mx/4.5.2/../../../../pic32mx/lib/libc.a(buf.o)
                0x9d0309e8                _buffree

.rodata         0x9d0309fc       0x20
 .rodata        0x9d0309fc       0x10 build/default/debug/lwip-1.4.1/src/api/tcpip.o
 .rodata        0x9d030a0c       0x10 build/default/debug/lwip-1.4.1/src/netif/etharp.o
                0x9d030a0c                ethbroadcast
                0x9d030a14                ethzero

.text.EthRxFiltersSet
                0x9d030a1c       0x10
 .text.EthRxFiltersSet
                0x9d030a1c       0x10 /opt/microchip/xc32/v1.22/bin/../lib/gcc/pic32mx/4.5.2/../../../../pic32mx/lib/libmchp_peripheral_32MX795F512L.a(eth_rx_filters_lib.o)
                0x9d030a1c                EthRxFiltersSet

.text.EthRxFiltersClr
                0x9d030a2c       0x10
 .text.EthRxFiltersClr
                0x9d030a2c       0x10 /opt/microchip/xc32/v1.22/bin/../lib/gcc/pic32mx/4.5.2/../../../../pic32mx/lib/libmchp_peripheral_32MX795F512L.a(eth_rx_filters_lib.o)
                0x9d030a2c                EthRxFiltersClr

.text.EthRxFiltersWrite
                0x9d030a3c       0x10
 .text.EthRxFiltersWrite
                0x9d030a3c       0x10 /opt/microchip/xc32/v1.22/bin/../lib/gcc/pic32mx/4.5.2/../../../../pic32mx/lib/libmchp_peripheral_32MX795F512L.a(eth_rx_filters_lib.o)
                0x9d030a3c                EthRxFiltersWrite

.rodata         0x9d030a4c       0x18
 .rodata        0x9d030a4c       0x10 /opt/microchip/xc32/v1.22/bin/../lib/gcc/pic32mx/4.5.2/../../../../pic32mx/lib/libmchp_peripheral_32MX795F512L.a(eth_miim_access.o)
 .rodata        0x9d030a5c        0x8 build/default/debug/lwip-1.4.1/src/core/ipv4/ip_addr.o
                0x9d030a5c                ip_addr_any
                0x9d030a60                ip_addr_broadcast

.text.ReadCoreTimer
                0x9d030a64        0x8
 .text.ReadCoreTimer
                0x9d030a64        0x8 /opt/microchip/xc32/v1.22/bin/../lib/gcc/pic32mx/4.5.2/../../../../pic32mx/lib/libmchp_peripheral.a(read_core_timer_lib.o)
                0x9d030a64                ReadCoreTimer

.text._bootstrap_exception_handler
                0x9d030a6c        0x8
 .text._bootstrap_exception_handler
                0x9d030a6c        0x8 /opt/microchip/xc32/v1.22/bin/../lib/gcc/pic32mx/4.5.2/../../../../pic32mx/lib/libpic32.a(default-bootstrap-exception-handler.o)
                0x9d030a6c                _bootstrap_exception_handler

.text._on_reset
                0x9d030a74        0x8
 .text._on_reset
                0x9d030a74        0x8 /opt/microchip/xc32/v1.22/bin/../lib/gcc/pic32mx/4.5.2/../../../../pic32mx/lib/libpic32.a(default-on-reset.o)
                0x9d030a74                _on_reset

.text._on_bootstrap
                0x9d030a7c        0x8
 .text._on_bootstrap
                0x9d030a7c        0x8 /opt/microchip/xc32/v1.22/bin/../lib/gcc/pic32mx/4.5.2/../../../../pic32mx/lib/libpic32.a(default-on-bootstrap.o)
                0x9d030a7c                _on_bootstrap

.text._general_exception_handler
                0x9d030a84        0x8
 .text._general_exception_handler
                0x9d030a84        0x8 /opt/microchip/xc32/v1.22/bin/../lib/gcc/pic32mx/4.5.2/../../../../pic32mx/lib/libpic32.a(default-general-exception-handler.o)
                0x9d030a84                _general_exception_handler

.vector_default
                0x9d030a8c        0x8
 .vector_default
                0x9d030a8c        0x8 /opt/microchip/xc32/v1.22/bin/../lib/gcc/pic32mx/4.5.2/../../../../pic32mx/lib/libpic32.a(defaultinterrupt.o)
                0x9d030a8c                _DefaultInterrupt

.text.getpagesize
                0x9d030a94        0x8
 .text.getpagesize
                0x9d030a94        0x8 /opt/microchip/xc32/v1.22/bin/../lib/gcc/pic32mx/4.5.2/../../../../pic32mx/lib/libpic32.a(sbrk.o)
                0x9d030a94                getpagesize

.rodata         0x9d030a9c        0x8
 .rodata        0x9d030a9c        0x8 /opt/microchip/xc32/v1.22/bin/../lib/gcc/pic32mx/4.5.2/libgcc.a(_floatundisf.o)

.text%z369      0x00000000        0x0
 .text          0x00000000        0x0 /opt/microchip/xc32/v1.22/bin/../lib/gcc/pic32mx/4.5.2/../../../../pic32mx/lib/libe.a(_floatdisf.o)

.text%z370      0x00000000        0x0
 .text          0x00000000        0x0 /opt/microchip/xc32/v1.22/bin/../lib/gcc/pic32mx/4.5.2/../../../../pic32mx/lib/libpic32.a(write.o)

.text%z371      0x00000000        0x0
 .text          0x00000000        0x0 /opt/microchip/xc32/v1.22/bin/../lib/gcc/pic32mx/4.5.2/../../../../pic32mx/lib/libpic32.a(sbrk.o)

.text%z372      0x00000000        0x0
 .text          0x00000000        0x0 /opt/microchip/xc32/v1.22/bin/../lib/gcc/pic32mx/4.5.2/../../../../pic32mx/lib/libc.a(powersf.o)

.text%z373      0x00000000        0x0
 .text          0x00000000        0x0 /opt/microchip/xc32/v1.22/bin/../lib/gcc/pic32mx/4.5.2/../../../../pic32mx/lib/libc.a(ctype.o)

.text%z374      0x00000000        0x0
 .text          0x00000000        0x0 /opt/microchip/xc32/v1.22/bin/../lib/gcc/pic32mx/4.5.2/../../../../pic32mx/lib/libc.a(_flsbuf_simple.o)

.text%z375      0x00000000        0x0
 .text          0x00000000        0x0 /opt/microchip/xc32/v1.22/bin/../lib/gcc/pic32mx/4.5.2/../../../../pic32mx/lib/libc.a(doprnt.o)

.text%z376      0x00000000        0x0
 .text          0x00000000        0x0 /opt/microchip/xc32/v1.22/bin/../lib/gcc/pic32mx/4.5.2/../../../../pic32mx/lib/libc.a(doprnt_cdnopsuxX.eo)

.text%z377      0x00000000        0x0
 .text          0x00000000        0x0 /opt/microchip/xc32/v1.22/bin/../lib/gcc/pic32mx/4.5.2/../../../../pic32mx/lib/libc.a(errno.o)

.text%z378      0x00000000        0x0
 .text          0x00000000        0x0 /opt/microchip/xc32/v1.22/bin/../lib/gcc/pic32mx/4.5.2/../../../../pic32mx/lib/libc.a(buf.o)

.text%z379      0x00000000        0x0
 .text          0x00000000        0x0 /opt/microchip/xc32/v1.22/bin/../lib/gcc/pic32mx/4.5.2/../../../../pic32mx/lib/libc.a(_fputc_simple.o)

.text%z380      0x00000000        0x0
 .text          0x00000000        0x0 /opt/microchip/xc32/v1.22/bin/../lib/gcc/pic32mx/4.5.2/../../../../pic32mx/lib/libc.a(printf.o)

.text%z381      0x00000000        0x0
 .text          0x00000000        0x0 /opt/microchip/xc32/v1.22/bin/../lib/gcc/pic32mx/4.5.2/../../../../pic32mx/lib/libc.a(printf_cdnopsuxX.eo)

.text%z382      0x00000000        0x0
 .text          0x00000000        0x0 /opt/microchip/xc32/v1.22/bin/../lib/gcc/pic32mx/4.5.2/../../../../pic32mx/lib/libc.a(strncmp.o)

.text%z383      0x00000000        0x0
 .text          0x00000000        0x0 /opt/microchip/xc32/v1.22/bin/../lib/gcc/pic32mx/4.5.2/../../../../pic32mx/lib/libc.a(setbuf.o)

.text%z384      0x00000000        0x0
 .text          0x00000000        0x0 /opt/microchip/xc32/v1.22/bin/../lib/gcc/pic32mx/4.5.2/../../../../pic32mx/lib/libc.a(rand.o)

.text%z385      0x00000000        0x0
 .text          0x00000000        0x0 /opt/microchip/xc32/v1.22/bin/../lib/gcc/pic32mx/4.5.2/../../../../pic32mx/lib/libc.a(puts.o)

.text%z386      0x00000000        0x0
 .text          0x00000000        0x0 /opt/microchip/xc32/v1.22/bin/../lib/gcc/pic32mx/4.5.2/../../../../pic32mx/lib/libc.a(malloc.o)

.text%z387      0x00000000        0x0
 .text          0x00000000        0x0 /opt/microchip/xc32/v1.22/bin/../lib/gcc/pic32mx/4.5.2/../../../../pic32mx/lib/libc.a(calloc.o)

.text%z388      0x00000000        0x0
 .text          0x00000000        0x0 /opt/microchip/xc32/v1.22/bin/../lib/gcc/pic32mx/4.5.2/../../../../pic32mx/lib/libc.a(_iob.o)

.text%z389      0x00000000        0x0
 .text          0x00000000        0x0 /opt/microchip/xc32/v1.22/bin/../lib/gcc/pic32mx/4.5.2/../../../../pic32mx/lib/libpic32.a(xc32_uart.o)

.text%z390      0x00000000        0x0
 .text          0x00000000        0x0 /opt/microchip/xc32/v1.22/bin/../lib/gcc/pic32mx/4.5.2/../../../../pic32mx/lib/libdebug.a(db_utils.o)

.text%z391      0x00000000        0x0
 .text          0x00000000        0x0 /opt/microchip/xc32/v1.22/bin/../lib/gcc/pic32mx/4.5.2/../../../../pic32mx/lib/libpic32.a(defaultinterrupt.o)

.text%z392      0x00000000        0x0
 .text          0x00000000        0x0 /opt/microchip/xc32/v1.22/bin/../lib/gcc/pic32mx/4.5.2/../../../../pic32mx/lib/libpic32.a(default-general-exception-handler.o)

.text%z393      0x00000000        0x0
 .text          0x00000000        0x0 /opt/microchip/xc32/v1.22/bin/../lib/gcc/pic32mx/4.5.2/../../../../pic32mx/lib/libpic32.a(vector63.o)

.text%z394      0x00000000        0x0
 .text          0x00000000        0x0 /opt/microchip/xc32/v1.22/bin/../lib/gcc/pic32mx/4.5.2/../../../../pic32mx/lib/libpic32.a(vector62.o)

.text%z395      0x00000000        0x0
 .text          0x00000000        0x0 /opt/microchip/xc32/v1.22/bin/../lib/gcc/pic32mx/4.5.2/../../../../pic32mx/lib/libpic32.a(vector61.o)

.text%z396      0x00000000        0x0
 .text          0x00000000        0x0 /opt/microchip/xc32/v1.22/bin/../lib/gcc/pic32mx/4.5.2/../../../../pic32mx/lib/libpic32.a(vector60.o)

.text%z397      0x00000000        0x0
 .text          0x00000000        0x0 /opt/microchip/xc32/v1.22/bin/../lib/gcc/pic32mx/4.5.2/../../../../pic32mx/lib/libpic32.a(vector59.o)

.text%z398      0x00000000        0x0
 .text          0x00000000        0x0 /opt/microchip/xc32/v1.22/bin/../lib/gcc/pic32mx/4.5.2/../../../../pic32mx/lib/libpic32.a(vector58.o)

.text%z399      0x00000000        0x0
 .text          0x00000000        0x0 /opt/microchip/xc32/v1.22/bin/../lib/gcc/pic32mx/4.5.2/../../../../pic32mx/lib/libpic32.a(vector57.o)

.text%z400      0x00000000        0x0
 .text          0x00000000        0x0 /opt/microchip/xc32/v1.22/bin/../lib/gcc/pic32mx/4.5.2/../../../../pic32mx/lib/libpic32.a(vector56.o)

.text%z401      0x00000000        0x0
 .text          0x00000000        0x0 /opt/microchip/xc32/v1.22/bin/../lib/gcc/pic32mx/4.5.2/../../../../pic32mx/lib/libpic32.a(vector55.o)

.text%z402      0x00000000        0x0
 .text          0x00000000        0x0 /opt/microchip/xc32/v1.22/bin/../lib/gcc/pic32mx/4.5.2/../../../../pic32mx/lib/libpic32.a(vector54.o)

.text%z403      0x00000000        0x0
 .text          0x00000000        0x0 /opt/microchip/xc32/v1.22/bin/../lib/gcc/pic32mx/4.5.2/../../../../pic32mx/lib/libpic32.a(vector53.o)

.text%z404      0x00000000        0x0
 .text          0x00000000        0x0 /opt/microchip/xc32/v1.22/bin/../lib/gcc/pic32mx/4.5.2/../../../../pic32mx/lib/libpic32.a(vector52.o)

.text%z405      0x00000000        0x0
 .text          0x00000000        0x0 /opt/microchip/xc32/v1.22/bin/../lib/gcc/pic32mx/4.5.2/../../../../pic32mx/lib/libpic32.a(vector51.o)

.text%z406      0x00000000        0x0
 .text          0x00000000        0x0 /opt/microchip/xc32/v1.22/bin/../lib/gcc/pic32mx/4.5.2/../../../../pic32mx/lib/libpic32.a(vector50.o)

.text%z407      0x00000000        0x0
 .text          0x00000000        0x0 /opt/microchip/xc32/v1.22/bin/../lib/gcc/pic32mx/4.5.2/../../../../pic32mx/lib/libpic32.a(vector49.o)

.text%z408      0x00000000        0x0
 .text          0x00000000        0x0 /opt/microchip/xc32/v1.22/bin/../lib/gcc/pic32mx/4.5.2/../../../../pic32mx/lib/libpic32.a(vector47.o)

.text%z409      0x00000000        0x0
 .text          0x00000000        0x0 /opt/microchip/xc32/v1.22/bin/../lib/gcc/pic32mx/4.5.2/../../../../pic32mx/lib/libpic32.a(vector46.o)

.text%z410      0x00000000        0x0
 .text          0x00000000        0x0 /opt/microchip/xc32/v1.22/bin/../lib/gcc/pic32mx/4.5.2/../../../../pic32mx/lib/libpic32.a(vector45.o)

.text%z411      0x00000000        0x0
 .text          0x00000000        0x0 /opt/microchip/xc32/v1.22/bin/../lib/gcc/pic32mx/4.5.2/../../../../pic32mx/lib/libpic32.a(vector44.o)

.text%z412      0x00000000        0x0
 .text          0x00000000        0x0 /opt/microchip/xc32/v1.22/bin/../lib/gcc/pic32mx/4.5.2/../../../../pic32mx/lib/libpic32.a(vector43.o)

.text%z413      0x00000000        0x0
 .text          0x00000000        0x0 /opt/microchip/xc32/v1.22/bin/../lib/gcc/pic32mx/4.5.2/../../../../pic32mx/lib/libpic32.a(vector42.o)

.text%z414      0x00000000        0x0
 .text          0x00000000        0x0 /opt/microchip/xc32/v1.22/bin/../lib/gcc/pic32mx/4.5.2/../../../../pic32mx/lib/libpic32.a(vector41.o)

.text%z415      0x00000000        0x0
 .text          0x00000000        0x0 /opt/microchip/xc32/v1.22/bin/../lib/gcc/pic32mx/4.5.2/../../../../pic32mx/lib/libpic32.a(vector40.o)

.text%z416      0x00000000        0x0
 .text          0x00000000        0x0 /opt/microchip/xc32/v1.22/bin/../lib/gcc/pic32mx/4.5.2/../../../../pic32mx/lib/libpic32.a(vector39.o)

.text%z417      0x00000000        0x0
 .text          0x00000000        0x0 /opt/microchip/xc32/v1.22/bin/../lib/gcc/pic32mx/4.5.2/../../../../pic32mx/lib/libpic32.a(vector38.o)

.text%z418      0x00000000        0x0
 .text          0x00000000        0x0 /opt/microchip/xc32/v1.22/bin/../lib/gcc/pic32mx/4.5.2/../../../../pic32mx/lib/libpic32.a(vector37.o)

.text%z419      0x00000000        0x0
 .text          0x00000000        0x0 /opt/microchip/xc32/v1.22/bin/../lib/gcc/pic32mx/4.5.2/../../../../pic32mx/lib/libpic32.a(vector36.o)

.text%z420      0x00000000        0x0
 .text          0x00000000        0x0 /opt/microchip/xc32/v1.22/bin/../lib/gcc/pic32mx/4.5.2/../../../../pic32mx/lib/libpic32.a(vector35.o)

.text%z421      0x00000000        0x0
 .text          0x00000000        0x0 /opt/microchip/xc32/v1.22/bin/../lib/gcc/pic32mx/4.5.2/../../../../pic32mx/lib/libpic32.a(vector34.o)

.text%z422      0x00000000        0x0
 .text          0x00000000        0x0 /opt/microchip/xc32/v1.22/bin/../lib/gcc/pic32mx/4.5.2/../../../../pic32mx/lib/libpic32.a(vector33.o)

.text%z423      0x00000000        0x0
 .text          0x00000000        0x0 /opt/microchip/xc32/v1.22/bin/../lib/gcc/pic32mx/4.5.2/../../../../pic32mx/lib/libpic32.a(vector32.o)

.text%z424      0x00000000        0x0
 .text          0x00000000        0x0 /opt/microchip/xc32/v1.22/bin/../lib/gcc/pic32mx/4.5.2/../../../../pic32mx/lib/libpic32.a(vector31.o)

.text%z425      0x00000000        0x0
 .text          0x00000000        0x0 /opt/microchip/xc32/v1.22/bin/../lib/gcc/pic32mx/4.5.2/../../../../pic32mx/lib/libpic32.a(vector30.o)

.text%z426      0x00000000        0x0
 .text          0x00000000        0x0 /opt/microchip/xc32/v1.22/bin/../lib/gcc/pic32mx/4.5.2/../../../../pic32mx/lib/libpic32.a(vector29.o)

.text%z427      0x00000000        0x0
 .text          0x00000000        0x0 /opt/microchip/xc32/v1.22/bin/../lib/gcc/pic32mx/4.5.2/../../../../pic32mx/lib/libpic32.a(vector28.o)

.text%z428      0x00000000        0x0
 .text          0x00000000        0x0 /opt/microchip/xc32/v1.22/bin/../lib/gcc/pic32mx/4.5.2/../../../../pic32mx/lib/libpic32.a(vector27.o)

.text%z429      0x00000000        0x0
 .text          0x00000000        0x0 /opt/microchip/xc32/v1.22/bin/../lib/gcc/pic32mx/4.5.2/../../../../pic32mx/lib/libpic32.a(vector26.o)

.text%z430      0x00000000        0x0
 .text          0x00000000        0x0 /opt/microchip/xc32/v1.22/bin/../lib/gcc/pic32mx/4.5.2/../../../../pic32mx/lib/libpic32.a(vector25.o)

.text%z431      0x00000000        0x0
 .text          0x00000000        0x0 /opt/microchip/xc32/v1.22/bin/../lib/gcc/pic32mx/4.5.2/../../../../pic32mx/lib/libpic32.a(vector24.o)

.text%z432      0x00000000        0x0
 .text          0x00000000        0x0 /opt/microchip/xc32/v1.22/bin/../lib/gcc/pic32mx/4.5.2/../../../../pic32mx/lib/libpic32.a(vector23.o)

.text%z433      0x00000000        0x0
 .text          0x00000000        0x0 /opt/microchip/xc32/v1.22/bin/../lib/gcc/pic32mx/4.5.2/../../../../pic32mx/lib/libpic32.a(vector22.o)

.text%z434      0x00000000        0x0
 .text          0x00000000        0x0 /opt/microchip/xc32/v1.22/bin/../lib/gcc/pic32mx/4.5.2/../../../../pic32mx/lib/libpic32.a(vector21.o)

.text%z435      0x00000000        0x0
 .text          0x00000000        0x0 /opt/microchip/xc32/v1.22/bin/../lib/gcc/pic32mx/4.5.2/../../../../pic32mx/lib/libpic32.a(vector20.o)

.text%z436      0x00000000        0x0
 .text          0x00000000        0x0 /opt/microchip/xc32/v1.22/bin/../lib/gcc/pic32mx/4.5.2/../../../../pic32mx/lib/libpic32.a(vector19.o)

.text%z437      0x00000000        0x0
 .text          0x00000000        0x0 /opt/microchip/xc32/v1.22/bin/../lib/gcc/pic32mx/4.5.2/../../../../pic32mx/lib/libpic32.a(vector18.o)

.text%z438      0x00000000        0x0
 .text          0x00000000        0x0 /opt/microchip/xc32/v1.22/bin/../lib/gcc/pic32mx/4.5.2/../../../../pic32mx/lib/libpic32.a(vector17.o)

.text%z439      0x00000000        0x0
 .text          0x00000000        0x0 /opt/microchip/xc32/v1.22/bin/../lib/gcc/pic32mx/4.5.2/../../../../pic32mx/lib/libpic32.a(vector16.o)

.text%z440      0x00000000        0x0
 .text          0x00000000        0x0 /opt/microchip/xc32/v1.22/bin/../lib/gcc/pic32mx/4.5.2/../../../../pic32mx/lib/libpic32.a(vector14.o)

.text%z441      0x00000000        0x0
 .text          0x00000000        0x0 /opt/microchip/xc32/v1.22/bin/../lib/gcc/pic32mx/4.5.2/../../../../pic32mx/lib/libpic32.a(vector13.o)

.text%z442      0x00000000        0x0
 .text          0x00000000        0x0 /opt/microchip/xc32/v1.22/bin/../lib/gcc/pic32mx/4.5.2/../../../../pic32mx/lib/libpic32.a(vector12.o)

.text%z443      0x00000000        0x0
 .text          0x00000000        0x0 /opt/microchip/xc32/v1.22/bin/../lib/gcc/pic32mx/4.5.2/../../../../pic32mx/lib/libpic32.a(vector11.o)

.text%z444      0x00000000        0x0
 .text          0x00000000        0x0 /opt/microchip/xc32/v1.22/bin/../lib/gcc/pic32mx/4.5.2/../../../../pic32mx/lib/libpic32.a(vector10.o)

.text%z445      0x00000000        0x0
 .text          0x00000000        0x0 /opt/microchip/xc32/v1.22/bin/../lib/gcc/pic32mx/4.5.2/../../../../pic32mx/lib/libpic32.a(vector9.o)

.text%z446      0x00000000        0x0
 .text          0x00000000        0x0 /opt/microchip/xc32/v1.22/bin/../lib/gcc/pic32mx/4.5.2/../../../../pic32mx/lib/libpic32.a(vector8.o)

.text%z447      0x00000000        0x0
 .text          0x00000000        0x0 /opt/microchip/xc32/v1.22/bin/../lib/gcc/pic32mx/4.5.2/../../../../pic32mx/lib/libpic32.a(vector7.o)

.text%z448      0x00000000        0x0
 .text          0x00000000        0x0 /opt/microchip/xc32/v1.22/bin/../lib/gcc/pic32mx/4.5.2/../../../../pic32mx/lib/libpic32.a(vector6.o)

.text%z449      0x00000000        0x0
 .text          0x00000000        0x0 /opt/microchip/xc32/v1.22/bin/../lib/gcc/pic32mx/4.5.2/../../../../pic32mx/lib/libpic32.a(vector5.o)

.text%z450      0x00000000        0x0
 .text          0x00000000        0x0 /opt/microchip/xc32/v1.22/bin/../lib/gcc/pic32mx/4.5.2/../../../../pic32mx/lib/libpic32.a(vector3.o)

.text%z451      0x00000000        0x0
 .text          0x00000000        0x0 /opt/microchip/xc32/v1.22/bin/../lib/gcc/pic32mx/4.5.2/../../../../pic32mx/lib/libpic32.a(vector2.o)

.text%z452      0x00000000        0x0
 .text          0x00000000        0x0 /opt/microchip/xc32/v1.22/bin/../lib/gcc/pic32mx/4.5.2/../../../../pic32mx/lib/libpic32.a(vector0.o)

.text%z453      0x00000000        0x0
 .text          0x00000000        0x0 /opt/microchip/xc32/v1.22/bin/../lib/gcc/pic32mx/4.5.2/../../../../pic32mx/lib/libpic32.a(general-exception.o)

.text%z454      0x00000000        0x0
 .text          0x00000000        0x0 /opt/microchip/xc32/v1.22/bin/../lib/gcc/pic32mx/4.5.2/../../../../pic32mx/lib/libpic32.a(default-on-bootstrap.o)

.text%z455      0x00000000        0x0
 .text          0x00000000        0x0 /opt/microchip/xc32/v1.22/bin/../lib/gcc/pic32mx/4.5.2/../../../../pic32mx/lib/libpic32.a(default-on-reset.o)

.text%z456      0x00000000        0x0
 .text          0x00000000        0x0 /opt/microchip/xc32/v1.22/bin/../lib/gcc/pic32mx/4.5.2/../../../../pic32mx/lib/libpic32.a(default-bootstrap-exception-handler.o)

.text%z457      0x00000000        0x0
 .text          0x00000000        0x0 /opt/microchip/xc32/v1.22/bin/../lib/gcc/pic32mx/4.5.2/../../../../pic32mx/lib/libmchp_peripheral_32MX795F512L.a(_ports_tbl_libp.o)

.text%z458      0x00000000        0x0
 .text          0x00000000        0x0 /opt/microchip/xc32/v1.22/bin/../lib/gcc/pic32mx/4.5.2/../../../../pic32mx/lib/libmchp_peripheral_32MX795F512L.a(port_set_pins_digital_out_lib.o)

.text%z459      0x00000000        0x0
 .text          0x00000000        0x0 /opt/microchip/xc32/v1.22/bin/../lib/gcc/pic32mx/4.5.2/../../../../pic32mx/lib/libmchp_peripheral_32MX795F512L.a(port_set_pins_digital_in_lib.o)

.text%z460      0x00000000        0x0
 .text          0x00000000        0x0 /opt/microchip/xc32/v1.22/bin/../lib/gcc/pic32mx/4.5.2/../../../../pic32mx/lib/libmchp_peripheral_32MX795F512L.a(int_tbl_lib.o)

.text%z461      0x00000000        0x0
 .text          0x00000000        0x0 /opt/microchip/xc32/v1.22/bin/../lib/gcc/pic32mx/4.5.2/../../../../pic32mx/lib/libmchp_peripheral_32MX795F512L.a(eth_miim_access.o)

.text%z462      0x00000000        0x0
 .text          0x00000000        0x0 /opt/microchip/xc32/v1.22/bin/../lib/gcc/pic32mx/4.5.2/../../../../pic32mx/lib/libmchp_peripheral_32MX795F512L.a(_eth_append_busy_list_lib.o)

.text%z463      0x00000000        0x0
 .text          0x00000000        0x0 /opt/microchip/xc32/v1.22/bin/../lib/gcc/pic32mx/4.5.2/../../../../pic32mx/lib/libmchp_peripheral_32MX795F512L.a(eth_tx_packet_lib.o)

.text%z464      0x00000000        0x0
 .text          0x00000000        0x0 /opt/microchip/xc32/v1.22/bin/../lib/gcc/pic32mx/4.5.2/../../../../pic32mx/lib/libmchp_peripheral_32MX795F512L.a(eth_rx_set_buffer_size_lib.o)

.text%z465      0x00000000        0x0
 .text          0x00000000        0x0 /opt/microchip/xc32/v1.22/bin/../lib/gcc/pic32mx/4.5.2/../../../../pic32mx/lib/libmchp_peripheral_32MX795F512L.a(eth_rx_get_packet_lib.o)

.text%z466      0x00000000        0x0
 .text          0x00000000        0x0 /opt/microchip/xc32/v1.22/bin/../lib/gcc/pic32mx/4.5.2/../../../../pic32mx/lib/libmchp_peripheral_32MX795F512L.a(eth_rx_filters_lib.o)

.text%z467      0x00000000        0x0
 .text          0x00000000        0x0 /opt/microchip/xc32/v1.22/bin/../lib/gcc/pic32mx/4.5.2/../../../../pic32mx/lib/libmchp_peripheral_32MX795F512L.a(eth_rx_buffers_append_lib.o)

.text%z468      0x00000000        0x0
 .text          0x00000000        0x0 /opt/microchip/xc32/v1.22/bin/../lib/gcc/pic32mx/4.5.2/../../../../pic32mx/lib/libmchp_peripheral_32MX795F512L.a(eth_mac_set_address_max_lib.o)

.text%z469      0x00000000        0x0
 .text          0x00000000        0x0 /opt/microchip/xc32/v1.22/bin/../lib/gcc/pic32mx/4.5.2/../../../../pic32mx/lib/libmchp_peripheral_32MX795F512L.a(eth_mac_open_lib.o)

.text%z470      0x00000000        0x0
 .text          0x00000000        0x0 /opt/microchip/xc32/v1.22/bin/../lib/gcc/pic32mx/4.5.2/../../../../pic32mx/lib/libmchp_peripheral_32MX795F512L.a(eth_init_lib.o)

.text%z471      0x00000000        0x0
 .text          0x00000000        0x0 /opt/microchip/xc32/v1.22/bin/../lib/gcc/pic32mx/4.5.2/../../../../pic32mx/lib/libmchp_peripheral_32MX795F512L.a(eth_descriptors_add_lib.o)

.text%z472      0x00000000        0x0
 .text          0x00000000        0x0 /opt/microchip/xc32/v1.22/bin/../lib/gcc/pic32mx/4.5.2/../../../../pic32mx/lib/libmchp_peripheral_32MX795F512L.a(eth_ack_packet_lib.o)

.text%z473      0x00000000        0x0
 .text          0x00000000        0x0 /opt/microchip/xc32/v1.22/bin/../lib/gcc/pic32mx/4.5.2/../../../../pic32mx/lib/libmchp_peripheral.a(read_core_timer_lib.o)

.text%z474      0x00000000        0x0
 .text          0x00000000        0x0 /opt/microchip/xc32/v1.22/bin/../lib/gcc/pic32mx/4.5.2/../../../../pic32mx/lib/./proc/32MX795F512L/processor.o

.text%z475      0x00000000        0x0
 .text          0x00000000        0x0 /opt/microchip/xc32/v1.22/bin/../lib/gcc/pic32mx/4.5.2/../../../../pic32mx/lib/./proc/32MX795F512L/default_isr_vectors.o

.text%z476      0x00000000        0x0
 .text          0x00000000        0x0 build/default/debug/lwip-1.4.1/src/netif/slipif.o

.text%z477      0x00000000        0x0
 .text          0x00000000        0x0 build/default/debug/lwip-1.4.1/src/netif/ethernetif.o

.text%z478      0x00000000        0x0
 .text          0x00000000        0x0 build/default/debug/lwip-1.4.1/src/netif/ppp/ppp.o

.text%z479      0x00000000        0x0
 .text          0x00000000        0x0 build/default/debug/lwip-1.4.1/src/netif/ppp/lcp.o

.text%z480      0x00000000        0x0
 .text          0x00000000        0x0 build/default/debug/lwip-1.4.1/src/netif/ppp/randm.o

.text%z481      0x00000000        0x0
 .text          0x00000000        0x0 build/default/debug/lwip-1.4.1/src/netif/ppp/pap.o

.text%z482      0x00000000        0x0
 .text          0x00000000        0x0 build/default/debug/lwip-1.4.1/src/netif/ppp/chpms.o

.text%z483      0x00000000        0x0
 .text          0x00000000        0x0 build/default/debug/lwip-1.4.1/src/netif/ppp/auth.o

.text%z484      0x00000000        0x0
 .text          0x00000000        0x0 build/default/debug/lwip-1.4.1/src/netif/ppp/magic.o

.text%z485      0x00000000        0x0
 .text          0x00000000        0x0 build/default/debug/lwip-1.4.1/src/netif/ppp/md5.o

.text%z486      0x00000000        0x0
 .text          0x00000000        0x0 build/default/debug/lwip-1.4.1/src/netif/ppp/fsm.o

.text%z487      0x00000000        0x0
 .text          0x00000000        0x0 build/default/debug/lwip-1.4.1/src/netif/ppp/ipcp.o

.text%z488      0x00000000        0x0
 .text          0x00000000        0x0 build/default/debug/lwip-1.4.1/src/netif/ppp/vj.o

.text%z489      0x00000000        0x0
 .text          0x00000000        0x0 build/default/debug/lwip-1.4.1/src/netif/ppp/chap.o

.text%z490      0x00000000        0x0
 .text          0x00000000        0x0 build/default/debug/lwip-1.4.1/src/netif/ppp/ppp_oe.o

.text%z491      0x00000000        0x0
 .text          0x00000000        0x0 build/default/debug/lwip-1.4.1/src/core/dns.o

.text%z492      0x00000000        0x0
 .text          0x00000000        0x0 build/default/debug/lwip-1.4.1/src/core/raw.o

.text%z493      0x00000000        0x0
 .text          0x00000000        0x0 build/default/debug/lwip-1.4.1/src/core/stats.o

.text%z494      0x00000000        0x0
 .text          0x00000000        0x0 build/default/debug/lwip-1.4.1/src/core/snmp/mib_structs.o

.text%z495      0x00000000        0x0
 .text          0x00000000        0x0 build/default/debug/lwip-1.4.1/src/core/snmp/msg_in.o

.text%z496      0x00000000        0x0
 .text          0x00000000        0x0 build/default/debug/lwip-1.4.1/src/core/snmp/asn1_dec.o

.text%z497      0x00000000        0x0
 .text          0x00000000        0x0 build/default/debug/lwip-1.4.1/src/core/snmp/mib2.o

.text%z498      0x00000000        0x0
 .text          0x00000000        0x0 build/default/debug/lwip-1.4.1/src/core/snmp/msg_out.o

.text%z499      0x00000000        0x0
 .text          0x00000000        0x0 build/default/debug/lwip-1.4.1/src/core/snmp/asn1_enc.o

.text%z500      0x00000000        0x0
 .text          0x00000000        0x0 build/default/debug/lwip-1.4.1/src/core/ipv4/igmp.o

.text%z501      0x00000000        0x0
 .text          0x00000000        0x0 build/default/debug/lwip-1.4.1/src/core/ipv4/inet.o

.text%z502      0x00000000        0x0
 .text          0x00000000        0x0 build/default/debug/lwip-1.4.1/src/core/ipv4/autoip.o

.text%z503      0x00000000        0x0
 .text          0x00000000        0x0 build/default/debug/lwip-1.4.1/src/api/err.o

.text%z504      0x00000000        0x0
 .text          0x00000000        0x0 build/default/debug/lwip-1.4.1/src/api/netifapi.o

.text%z505      0x00000000        0x0
 .text          0x00000000        0x0 build/default/debug/lwip-1.4.1/src/api/netdb.o

.text%z506      0x00000000        0x0
 .text          0x00000000        0x0 build/default/debug/contrib/ports/microchip/netif/xadapter.o
